(lp0
(lp1
F1611228959.572639
aF0.2910199761390686
aF-0.3186001777648926
aF0.38731274008750916
aF-0.5309683680534363
aF0.5362208485603333
aF0.623399555683136
aF0.2047264277935028
aa(lp2
F1611228959.573245
aF0.2910430133342743
aF-0.3185860514640808
aF0.3872066140174866
aF-0.5308281779289246
aF0.5362187027931213
aF0.6235111951828003
aF0.2047555148601532
aa(lp3
F1611228959.582588
aF0.2910584807395935
aF-0.3185831606388092
aF0.3871540129184723
aF-0.5307915210723877
aF0.536005973815918
aF0.6237466335296631
aF0.20469048619270325
aa(lp4
F1611228959.592623
aF0.29106923937797546
aF-0.318563848733902
aF0.38708966970443726
aF-0.53089839220047
aF0.5358914136886597
aF0.6237562298774719
aF0.2046840935945511
aa(lp5
F1611228959.602608
aF0.29107731580734253
aF-0.3185422122478485
aF0.3870697021484375
aF-0.5308278203010559
aF0.5358783602714539
aF0.6238229870796204
aF0.2046976387500763
aa(lp6
F1611228959.612613
aF0.29109033942222595
aF-0.3185215890407562
aF0.38706472516059875
aF-0.5306000113487244
aF0.5360393524169922
aF0.623853862285614
aF0.2047727257013321
aa(lp7
F1611228959.622616
aF0.29111236333847046
aF-0.3185008466243744
aF0.38704046607017517
aF-0.5303407311439514
aF0.536320686340332
aF0.623757004737854
aF0.2050025910139084
aa(lp8
F1611228959.62319
aF0.29113516211509705
aF-0.3184775710105896
aF0.38702061772346497
aF-0.530754566192627
aF0.5358491539955139
aF0.6239331960678101
aF0.20462816953659058
aa(lp9
F1611228959.632627
aF0.29116177558898926
aF-0.31845420598983765
aF0.3869757652282715
aF-0.5307034850120544
aF0.535889744758606
aF0.6239206790924072
aF0.20469261705875397
aa(lp10
F1611228959.642629
aF0.2911861538887024
aF-0.31841519474983215
aF0.386905312538147
aF-0.5305643677711487
aF0.5359073281288147
aF0.6241483688354492
aF0.2043125480413437
aa(lp11
F1611228959.652587
aF0.29123586416244507
aF-0.3184002637863159
aF0.3868403434753418
aF-0.530117928981781
aF0.5357782244682312
aF0.6245419383049011
aF0.20460718870162964
aa(lp12
F1611228959.662632
aF0.29124513268470764
aF-0.31838682293891907
aF0.3867821991443634
aF-0.5317859649658203
aF0.5341261029243469
aF0.6250543594360352
aF0.20302754640579224
aa(lp13
F1611228959.672652
aF0.2913225591182709
aF-0.31840184330940247
aF0.38674959540367126
aF-0.5319267511367798
aF0.5340219736099243
aF0.6250550746917725
aF0.20292995870113373
aa(lp14
F1611228959.67331
aF0.2914167046546936
aF-0.3184162974357605
aF0.38676348328590393
aF-0.5324117541313171
aF0.5341460704803467
aF0.6244809031486511
aF0.20309963822364807
aa(lp15
F1611228959.682631
aF0.29151451587677
aF-0.31842565536499023
aF0.38674795627593994
aF-0.5325214266777039
aF0.5337499380111694
aF0.6247992515563965
aF0.20287415385246277
aa(lp16
F1611228959.692618
aF0.2916325032711029
aF-0.3184641897678375
aF0.3867284953594208
aF-0.5325530767440796
aF0.5334486961364746
aF0.6250896453857422
aF0.20268872380256653
aa(lp17
F1611228959.702613
aF0.2917543947696686
aF-0.3185064494609833
aF0.3867117762565613
aF-0.5324500799179077
aF0.5331951975822449
aF0.625458300113678
aF0.2024892419576645
aa(lp18
F1611228959.71265
aF0.2920362651348114
aF-0.31869688630104065
aF0.38657712936401367
aF-0.5304231643676758
aF0.5298554301261902
aF0.6304536461830139
aF0.20107883214950562
aa(lp19
F1611228959.72262
aF0.291969358921051
aF-0.31857314705848694
aF0.38671600818634033
aF-0.5324133038520813
aF0.5328048467636108
aF0.6257281303405762
aF0.20277942717075348
aa(lp20
F1611228959.723175
aF0.2920568883419037
aF-0.3186239004135132
aF0.38668060302734375
aF-0.5322787761688232
aF0.5326225161552429
aF0.6260384321212769
aF0.20265363156795502
aa(lp21
F1611228959.732637
aF0.2922905683517456
aF-0.3188208341598511
aF0.38656261563301086
aF-0.5306209325790405
aF0.5290055871009827
aF0.6311866641044617
aF0.2004941701889038
aa(lp22
F1611228959.74256
aF0.2921943962574005
aF-0.3186871111392975
aF0.38670384883880615
aF-0.5326344966888428
aF0.532234251499176
aF0.6261749267578125
aF0.2023172825574875
aa(lp23
F1611228959.75262
aF0.292231947183609
aF-0.31871268153190613
aF0.3867500424385071
aF-0.5326952338218689
aF0.5321601033210754
aF0.6262110471725464
aF0.20224061608314514
aa(lp24
F1611228959.762655
aF0.2924286127090454
aF-0.3188803791999817
aF0.3867371082305908
aF-0.5308866500854492
aF0.5291091203689575
aF0.6309415102005005
aF0.20028910040855408
aa(lp25
F1611228959.77261
aF0.29229962825775146
aF-0.31876441836357117
aF0.38694608211517334
aF-0.5328153371810913
aF0.5322681665420532
aF0.625978946685791
aF0.20235812664031982
aa(lp26
F1611228959.773173
aF0.2923063635826111
aF-0.31877630949020386
aF0.3870004415512085
aF-0.53278648853302
aF0.5325003862380981
aF0.6258254051208496
aF0.20229807496070862
aa(lp27
F1611228959.782573
aF0.2924981713294983
aF-0.31894540786743164
aF0.3868783414363861
aF-0.5305817127227783
aF0.529180645942688
aF0.6311955451965332
aF0.200107604265213
aa(lp28
F1611228959.792521
aF0.29237017035484314
aF-0.31880709528923035
aF0.3870123624801636
aF-0.5326430797576904
aF0.5320141315460205
aF0.6263874173164368
aF0.20221565663814545
aa(lp29
F1611228959.802517
aF0.29252833127975464
aF-0.31899160146713257
aF0.3868718147277832
aF-0.5305641293525696
aF0.5293242931365967
aF0.6311085224151611
aF0.20004911720752716
aa(lp30
F1611228959.812599
aF0.29237616062164307
aF-0.31883472204208374
aF0.38701337575912476
aF-0.5327896475791931
aF0.5320849418640137
aF0.6261679530143738
aF0.2023230791091919
aa(lp31
F1611228959.82255
aF0.2925266921520233
aF-0.31902775168418884
aF0.3868548572063446
aF-0.5307568907737732
aF0.5294711589813232
aF0.6308014988899231
aF0.20011739432811737
aa(lp32
F1611228959.823138
aF0.2923738360404968
aF-0.31887122988700867
aF0.3870292901992798
aF-0.5328770279884338
aF0.5323622226715088
aF0.6259016990661621
aF0.20218738913536072
aa(lp33
F1611228959.832451
aF0.2923643887042999
aF-0.31887319684028625
aF0.3870691955089569
aF-0.5330443978309631
aF0.5323207378387451
aF0.6257905960083008
aF0.202199324965477
aa(lp34
F1611228959.842589
aF0.29240426421165466
aF-0.318922758102417
aF0.38709744811058044
aF-0.5330173969268799
aF0.532319188117981
aF0.6257408261299133
aF0.20242854952812195
aa(lp35
F1611228959.852602
aF0.2924330234527588
aF-0.31894099712371826
aF0.3871322572231293
aF-0.5330419540405273
aF0.5324742197990417
aF0.6255643963813782
aF0.20250102877616882
aa(lp36
F1611228959.862547
aF0.2924327254295349
aF-0.31895172595977783
aF0.38718390464782715
aF-0.5330126881599426
aF0.5323689579963684
aF0.6256099343299866
aF0.20271413028240204
aa(lp37
F1611228959.872596
aF0.2925169765949249
aF-0.31903237104415894
aF0.387174129486084
aF-0.5313277840614319
aF0.5341835021972656
aF0.6250423192977905
aF0.2041102945804596
aa(lp38
F1611228959.873168
aF0.2924968898296356
aF-0.3190341591835022
aF0.38720008730888367
aF-0.5314440727233887
aF0.5344159603118896
aF0.6247130036354065
aF0.2042068988084793
aa(lp39
F1611228959.882619
aF0.29248103499412537
aF-0.3190291225910187
aF0.3872196674346924
aF-0.5314580798149109
aF0.5343221426010132
aF0.6247984766960144
aF0.20415429770946503
aa(lp40
F1611228959.892643
aF0.2924523949623108
aF-0.31902098655700684
aF0.3872455358505249
aF-0.5315979719161987
aF0.53443843126297
aF0.6245269775390625
aF0.2043166309595108
aa(lp41
F1611228959.902592
aF0.2924378216266632
aF-0.3190169334411621
aF0.3872658908367157
aF-0.5315159559249878
aF0.5342684388160706
aF0.6247730851173401
aF0.20422211289405823
aa(lp42
F1611228959.912592
aF0.29240432381629944
aF-0.31900444626808167
aF0.3873124122619629
aF-0.5315288305282593
aF0.5343810319900513
aF0.62465900182724
aF0.20424291491508484
aa(lp43
F1611228959.922661
aF0.29237815737724304
aF-0.3189859986305237
aF0.3873707056045532
aF-0.5315454602241516
aF0.5343114137649536
aF0.6247693300247192
aF0.2040441930294037
aa(lp44
F1611228959.923258
aF0.2923382520675659
aF-0.3189639151096344
aF0.3874252140522003
aF-0.5315843820571899
aF0.5346822142601013
aF0.6243835687637329
aF0.20415256917476654
aa(lp45
F1611228959.932624
aF0.29227006435394287
aF-0.3189429044723511
aF0.387506902217865
aF-0.5317153334617615
aF0.5353443026542664
aF0.6237378716468811
aF0.2040499448776245
aa(lp46
F1611228959.942654
aF0.2922367453575134
aF-0.31890764832496643
aF0.38751500844955444
aF-0.5316802263259888
aF0.5353270173072815
aF0.6237865090370178
aF0.20403824746608734
aa(lp47
F1611228959.952591
aF0.2921806573867798
aF-0.3188769519329071
aF0.38750436902046204
aF-0.5317850708961487
aF0.5357916355133057
aF0.6232447624206543
aF0.2042008936405182
aa(lp48
F1611228959.962607
aF0.2924343943595886
aF-0.319088339805603
aF0.3873208463191986
aF-0.5282020568847656
aF0.5300931334495544
aF0.6322229504585266
aF0.20074400305747986
aa(lp49
F1611228959.972654
aF0.2924177646636963
aF-0.3190660774707794
aF0.3872843384742737
aF-0.5282820463180542
aF0.5298790335655212
aF0.6322987079620361
aF0.20086000859737396
aa(lp50
F1611228959.973316
aF0.29240936040878296
aF-0.31904715299606323
aF0.3872409760951996
aF-0.5283128023147583
aF0.5297330021858215
aF0.6323801279067993
aF0.2009076327085495
aa(lp51
F1611228959.982644
aF0.29211023449897766
aF-0.31878551840782166
aF0.3873756229877472
aF-0.531944751739502
aF0.5347826480865479
aF0.6239851713180542
aF0.2041686624288559
aa(lp52
F1611228960.032626
aF0.291981965303421
aF-0.31858891248703003
aF0.3871780037879944
aF-0.5321911573410034
aF0.5345328450202942
aF0.6239199042320251
aF0.20438028872013092
aa(lp53
F1611228960.042601
aF0.29192453622817993
aF-0.3185257315635681
aF0.3871106505393982
aF-0.5321464538574219
aF0.5345185399055481
aF0.6240258812904358
aF0.20421011745929718
aa(lp54
F1611228960.052593
aF0.2918967306613922
aF-0.31847476959228516
aF0.38706693053245544
aF-0.5320612788200378
aF0.5346348881721497
aF0.6239016652107239
aF0.20450708270072937
aa(lp55
F1611228960.062662
aF0.29179367423057556
aF-0.31833189725875854
aF0.3870154619216919
aF-0.5340138077735901
aF0.5326148867607117
aF0.6245216727256775
aF0.20278899371623993
aa(lp56
F1611228960.07261
aF0.2918126881122589
aF-0.3183004856109619
aF0.3869610130786896
aF-0.5339282751083374
aF0.5321306586265564
aF0.6250341534614563
aF0.20270667970180511
aa(lp57
F1611228960.073232
aF0.29195261001586914
aF-0.3183993995189667
aF0.38672927021980286
aF-0.5327079892158508
aF0.5297951698303223
aF0.6285194158554077
aF0.20125289261341095
aa(lp58
F1611228960.082656
aF0.2918602526187897
aF-0.31824344396591187
aF0.3868443965911865
aF-0.5340127944946289
aF0.5321348905563354
aF0.6249673366546631
aF0.20267875492572784
aa(lp59
F1611228960.092622
aF0.2918996810913086
aF-0.31825748085975647
aF0.38675397634506226
aF-0.5334562659263611
aF0.5325782895088196
aF0.6249951720237732
aF0.2028939127922058
aa(lp60
F1611228960.102629
aF0.29194414615631104
aF-0.3182346224784851
aF0.38669663667678833
aF-0.533442497253418
aF0.5325824022293091
aF0.6249780654907227
aF0.20297186076641083
aa(lp61
F1611228960.112628
aF0.2919773459434509
aF-0.3182297945022583
aF0.386636346578598
aF-0.5333787202835083
aF0.5324159860610962
aF0.6251305341720581
aF0.20310670137405396
aa(lp62
F1611228960.122686
aF0.2920236885547638
aF-0.3182113766670227
aF0.3865693211555481
aF-0.5334849953651428
aF0.532290518283844
aF0.6251147985458374
aF0.20320440828800201
aa(lp63
F1611228960.12327
aF0.2920769453048706
aF-0.3182094693183899
aF0.3865317106246948
aF-0.5336146950721741
aF0.5321974754333496
aF0.6251357197761536
aF0.20304344594478607
aa(lp64
F1611228960.132594
aF0.2922217845916748
aF-0.3183033764362335
aF0.38647693395614624
aF-0.5320612788200378
aF0.5336777567863464
aF0.6247400641441345
aF0.20444779098033905
aa(lp65
F1611228960.142734
aF0.2922753691673279
aF-0.31830763816833496
aF0.38648030161857605
aF-0.5319250226020813
aF0.5338164567947388
aF0.624790370464325
aF0.2042863816022873
aa(lp66
F1611228960.152625
aF0.29235324263572693
aF-0.31831037998199463
aF0.3864780366420746
aF-0.5318643450737
aF0.5337483286857605
aF0.6248868703842163
aF0.2043267786502838
aa(lp67
F1611228960.162586
aF0.29241377115249634
aF-0.318340927362442
aF0.3864700496196747
aF-0.5318984389305115
aF0.5337663888931274
aF0.6249057054519653
aF0.20413300395011902
aa(lp68
F1611228960.172624
aF0.2924581468105316
aF-0.31833627820014954
aF0.3864818513393402
aF-0.5325221419334412
aF0.5331727862358093
aF0.6249371767044067
aF0.2039618343114853
aa(lp69
F1611228960.17326
aF0.29251641035079956
aF-0.3183616101741791
aF0.3864733874797821
aF-0.5325957536697388
aF0.5333924293518066
aF0.624608039855957
aF0.20420391857624054
aa(lp70
F1611228960.182589
aF0.29256126284599304
aF-0.3183909058570862
aF0.38644230365753174
aF-0.532780110836029
aF0.533441960811615
aF0.6244322061538696
aF0.20413143932819366
aa(lp71
F1611228960.192616
aF0.2926592230796814
aF-0.3184780776500702
aF0.38637566566467285
aF-0.5319142937660217
aF0.5340734720230103
aF0.6244601607322693
aF0.20465144515037537
aa(lp72
F1611228960.202624
aF0.29270631074905396
aF-0.3185117244720459
aF0.38634979724884033
aF-0.5319178104400635
aF0.5340756773948669
aF0.6244586706161499
aF0.20464101433753967
aa(lp73
F1611228960.212628
aF0.2927515208721161
aF-0.31854677200317383
aF0.38636335730552673
aF-0.5319307446479797
aF0.5341386198997498
aF0.6244082450866699
aF0.20459741353988647
aa(lp74
F1611228960.22257
aF0.2928078770637512
aF-0.31859153509140015
aF0.38637489080429077
aF-0.5318899154663086
aF0.5339232683181763
aF0.6246930360794067
aF0.20439592003822327
aa(lp75
F1611228960.223207
aF0.2928454875946045
aF-0.3186260759830475
aF0.38642656803131104
aF-0.5317543745040894
aF0.5340980887413025
aF0.6246536374092102
aF0.20441244542598724
aa(lp76
F1611228960.232597
aF0.29290735721588135
aF-0.31869152188301086
aF0.38649001717567444
aF-0.5316616296768188
aF0.5341851711273193
aF0.6245607137680054
aF0.20470985770225525
aa(lp77
F1611228960.242665
aF0.2932714819908142
aF-0.3190358281135559
aF0.38644304871559143
aF-0.5278167724609375
aF0.5289222598075867
aF0.6334044337272644
aF0.20112057030200958
aa(lp78
F1611228960.252596
aF0.2933014929294586
aF-0.3190649449825287
aF0.3864935636520386
aF-0.5278592705726624
aF0.5293516516685486
aF0.6330136060714722
aF0.2011101245880127
aa(lp79
F1611228960.262613
aF0.2933560907840729
aF-0.3190896511077881
aF0.3866012692451477
aF-0.5279149413108826
aF0.5287837386131287
aF0.6333863735198975
aF0.20128409564495087
aa(lp80
F1611228960.272647
aF0.2930369973182678
aF-0.3188104033470154
aF0.3868083357810974
aF-0.5332329273223877
aF0.5321143865585327
aF0.6253188848495483
aF0.20369912683963776
aa(lp81
F1611228960.273269
aF0.2930442988872528
aF-0.31883805990219116
aF0.38690629601478577
aF-0.5332503914833069
aF0.5321289300918579
aF0.6252931952476501
aF0.20369403064250946
aa(lp82
F1611228960.282591
aF0.29304900765419006
aF-0.31884995102882385
aF0.3869796693325043
aF-0.533214271068573
aF0.5323308110237122
aF0.6251294612884521
aF0.2037636935710907
aa(lp83
F1611228960.292522
aF0.2930664122104645
aF-0.3188870847225189
aF0.38703280687332153
aF-0.533180296421051
aF0.5323470830917358
aF0.6252025961875916
aF0.2035856395959854
aa(lp84
F1611228960.30257
aF0.29306578636169434
aF-0.31890779733657837
aF0.3870912492275238
aF-0.5330626368522644
aF0.5325178503990173
aF0.6251826286315918
aF0.2035086452960968
aa(lp85
F1611228960.312627
aF0.2930772602558136
aF-0.318943053483963
aF0.3871263861656189
aF-0.5329289436340332
aF0.5321522355079651
aF0.6256424784660339
aF0.2034018486738205
aa(lp86
F1611228960.322624
aF0.2930559515953064
aF-0.31894734501838684
aF0.38719698786735535
aF-0.5329569578170776
aF0.5320589542388916
aF0.6257268786430359
aF0.20331275463104248
aa(lp87
F1611228960.323231
aF0.29305168986320496
aF-0.31896817684173584
aF0.38723015785217285
aF-0.5327782034873962
aF0.5320616960525513
aF0.6259014010429382
aF0.20323674380779266
aa(lp88
F1611228960.332626
aF0.29304221272468567
aF-0.3189821243286133
aF0.38733041286468506
aF-0.5329291224479675
aF0.5326747298240662
aF0.6252015829086304
aF0.2033892720937729
aa(lp89
F1611228960.342566
aF0.2930278778076172
aF-0.31898799538612366
aF0.3873952031135559
aF-0.5328297019004822
aF0.5328311324119568
aF0.6251890063285828
aF0.20327876508235931
aa(lp90
F1611228960.352567
aF0.2931169271469116
aF-0.31918665766716003
aF0.3872717320919037
aF-0.5312321186065674
aF0.5310631394386292
aF0.6286337971687317
aF0.2014545351266861
aa(lp91
F1611228960.372631
aF0.29335594177246094
aF-0.3193719983100891
aF0.3873567581176758
aF-0.5286662578582764
aF0.5302353501319885
aF0.6314690709114075
aF0.20151767134666443
aa(lp92
F1611228960.392676
aF0.2930782735347748
aF-0.3191271424293518
aF0.38749799132347107
aF-0.5315653681755066
aF0.5350784659385681
aF0.6237661242485046
aF0.20504914224147797
aa(lp93
F1611228960.402601
aF0.29329878091812134
aF-0.3193358778953552
aF0.3873266875743866
aF-0.5282939672470093
aF0.5305888056755066
aF0.6314283013343811
aF0.2016914039850235
aa(lp94
F1611228960.412574
aF0.29303044080734253
aF-0.3190751075744629
aF0.38747283816337585
aF-0.531531035900116
aF0.534600555896759
aF0.624303936958313
aF0.20474795997142792
aa(lp95
F1611228960.422619
aF0.2930033802986145
aF-0.31905052065849304
aF0.38748234510421753
aF-0.5317386388778687
aF0.5346814393997192
aF0.6240447163581848
aF0.20478790998458862
aa(lp96
F1611228960.423206
aF0.2929716110229492
aF-0.3190241754055023
aF0.38747459650039673
aF-0.5316169261932373
aF0.5343535542488098
aF0.62453693151474
aF0.20445893704891205
aa(lp97
F1611228960.432556
aF0.2929072976112366
aF-0.31893497705459595
aF0.387543648481369
aF-0.5326817631721497
aF0.533345103263855
aF0.6246768832206726
aF0.20389200747013092
aa(lp98
F1611228960.442501
aF0.2929123342037201
aF-0.31895047426223755
aF0.3874882757663727
aF-0.5318630933761597
aF0.5343636274337769
aF0.624306857585907
aF0.20449480414390564
aa(lp99
F1611228960.452627
aF0.2928169369697571
aF-0.3188630938529968
aF0.3875232934951782
aF-0.5330690741539001
aF0.5333728194236755
aF0.6242988705635071
aF0.2039652019739151
aa(lp100
F1611228960.462599
aF0.29277709126472473
aF-0.3188377618789673
aF0.3874736726284027
aF-0.5332810878753662
aF0.5334317684173584
aF0.62405925989151
aF0.20398981869220734
aa(lp101
F1611228960.472636
aF0.2927393317222595
aF-0.31882184743881226
aF0.38742050528526306
aF-0.5331345200538635
aF0.5334247946739197
aF0.6241244673728943
aF0.20419196784496307
aa(lp102
F1611228960.473211
aF0.2926748991012573
aF-0.3187624514102936
aF0.38737860321998596
aF-0.5333344340324402
aF0.5335717797279358
aF0.6237658262252808
aF0.20438143610954285
aa(lp103
F1611228960.482631
aF0.2926127016544342
aF-0.3187180757522583
aF0.3873424828052521
aF-0.5334644317626953
aF0.5336723327636719
aF0.6235181093215942
aF0.20453527569770813
aa(lp104
F1611228960.492624
aF0.29261520504951477
aF-0.31884676218032837
aF0.387114018201828
aF-0.5323154330253601
aF0.5297061800956726
aF0.6290370225906372
aF0.200908362865448
aa(lp105
F1611228960.502615
aF0.29256555438041687
aF-0.3188217878341675
aF0.3870885968208313
aF-0.5323122143745422
aF0.5299949049949646
aF0.6287510395050049
aF0.2010503113269806
aa(lp106
F1611228960.51266
aF0.2925514578819275
aF-0.31876397132873535
aF0.3870313763618469
aF-0.5317599773406982
aF0.5288913249969482
aF0.6303866505622864
aF0.20029480755329132
aa(lp107
F1611228960.522627
aF0.2923576831817627
aF-0.318558007478714
aF0.3871053457260132
aF-0.5340215563774109
aF0.5318846702575684
aF0.6252017021179199
aF0.20258989930152893
aa(lp108
F1611228960.523285
aF0.29250606894493103
aF-0.3187026083469391
aF0.3868764638900757
aF-0.531842052936554
aF0.5284692645072937
aF0.6306614875793457
aF0.2003256231546402
aa(lp109
F1611228960.532569
aF0.29231780767440796
aF-0.31850963830947876
aF0.38686642050743103
aF-0.5337923765182495
aF0.5317491292953491
aF0.6255338191986084
aF0.20252445340156555
aa(lp110
F1611228960.542634
aF0.2922981083393097
aF-0.3185046315193176
aF0.38677623867988586
aF-0.5337858200073242
aF0.5316190719604492
aF0.6255950927734375
aF0.2026936262845993
aa(lp111
F1611228960.552605
aF0.2922946810722351
aF-0.3185032606124878
aF0.3866777718067169
aF-0.5336540341377258
aF0.531561017036438
aF0.6256977915763855
aF0.2028757631778717
aa(lp112
F1611228960.562618
aF0.2922535538673401
aF-0.31848394870758057
aF0.38663047552108765
aF-0.5338079929351807
aF0.531598687171936
aF0.625517725944519
aF0.20292742550373077
aa(lp113
F1611228960.572605
aF0.2922407388687134
aF-0.3184778392314911
aF0.38658827543258667
aF-0.5336757302284241
aF0.5315309166908264
aF0.625703752040863
aF0.2028793841600418
aa(lp114
F1611228960.57324
aF0.29223689436912537
aF-0.3184775710105896
aF0.3865431249141693
aF-0.5337212681770325
aF0.5314657092094421
aF0.625686764717102
aF0.20298242568969727
aa(lp115
F1611228960.582644
aF0.2922414243221283
aF-0.3184897005558014
aF0.38651373982429504
aF-0.5336788892745972
aF0.5317801833152771
aF0.6253587603569031
aF0.2032807618379593
aa(lp116
F1611228960.592607
aF0.29222822189331055
aF-0.3184987008571625
aF0.38647031784057617
aF-0.5338143706321716
aF0.5317918658256531
aF0.6252670884132385
aF0.20317679643630981
aa(lp117
F1611228960.602599
aF0.2922404706478119
aF-0.3185122311115265
aF0.3864419162273407
aF-0.5338834524154663
aF0.5315651893615723
aF0.6253984570503235
aF0.2031838297843933
aa(lp118
F1611228960.612591
aF0.2923380136489868
aF-0.3185936212539673
aF0.3864164352416992
aF-0.5324090123176575
aF0.5334416627883911
aF0.6245042681694031
aF0.20487818121910095
aa(lp119
F1611228960.622643
aF0.2923571765422821
aF-0.3186172544956207
aF0.38641172647476196
aF-0.5324485301971436
aF0.5333171486854553
aF0.6245951056480408
aF0.2048225998878479
aa(lp120
F1611228960.62323
aF0.2922840416431427
aF-0.3185742497444153
aF0.38646969199180603
aF-0.5341700911521912
aF0.5316583514213562
aF0.6250327229499817
aF0.20331232249736786
aa(lp121
F1611228960.632603
aF0.29231399297714233
aF-0.31859225034713745
aF0.38651734590530396
aF-0.5342149138450623
aF0.5315865874290466
aF0.6251487731933594
aF0.20302477478981018
aa(lp122
F1611228960.642622
aF0.29237061738967896
aF-0.31862062215805054
aF0.3865608870983124
aF-0.5340971350669861
aF0.5312970876693726
aF0.6255733370780945
aF0.20278491079807281
aa(lp123
F1611228960.652584
aF0.2924059331417084
aF-0.31864261627197266
aF0.3866373598575592
aF-0.5342321395874023
aF0.5313391089439392
aF0.6254646182060242
aF0.2026546448469162
aa(lp124
F1611228960.662582
aF0.2924373149871826
aF-0.31865203380584717
aF0.38669225573539734
aF-0.5342614054679871
aF0.5312635898590088
aF0.6255475878715515
aF0.2025192230939865
aa(lp125
F1611228960.672687
aF0.29247456789016724
aF-0.31867334246635437
aF0.38671791553497314
aF-0.5341556072235107
aF0.5312681198120117
aF0.625636875629425
aF0.2025107592344284
aa(lp126
F1611228960.673286
aF0.29249921441078186
aF-0.3186841905117035
aF0.38673135638237
aF-0.5342055559158325
aF0.5315818786621094
aF0.6253112554550171
aF0.20256097614765167
aa(lp127
F1611228960.682599
aF0.2927160859107971
aF-0.31888946890830994
aF0.38659048080444336
aF-0.5319543480873108
aF0.5281347036361694
aF0.6308262348175049
aF0.20039120316505432
aa(lp128
F1611228960.692625
aF0.2925819456577301
aF-0.31873372197151184
aF0.3867877125740051
aF-0.5346376895904541
aF0.5310125946998596
aF0.6253513693809509
aF0.20279045403003693
aa(lp129
F1611228960.702605
aF0.292820543050766
aF-0.31893205642700195
aF0.3866428732872009
aF-0.5321520566940308
aF0.5285146236419678
aF0.6301429867744446
aF0.20101308822631836
aa(lp130
F1611228960.712612
aF0.29269808530807495
aF-0.31878793239593506
aF0.3868334889411926
aF-0.53456711769104
aF0.5317166447639465
aF0.6246041059494019
aF0.20343348383903503
aa(lp131
F1611228960.722626
aF0.29285961389541626
aF-0.3190107047557831
aF0.38679569959640503
aF-0.532686173915863
aF0.5305283069610596
aF0.6276770234107971
aF0.20200707018375397
aa(lp132
F1611228960.723387
aF0.29280075430870056
aF-0.31884846091270447
aF0.3870232105255127
aF-0.5343535542488098
aF0.5316005349159241
aF0.6247898936271667
aF0.203727126121521
aa(lp133
F1611228960.732642
aF0.29282721877098083
aF-0.3188820779323578
aF0.3870982229709625
aF-0.5340644121170044
aF0.5320984125137329
aF0.6245484948158264
aF0.20392560958862305
aa(lp134
F1611228960.742605
aF0.29285046458244324
aF-0.3189026415348053
aF0.38716670870780945
aF-0.5338438749313354
aF0.5320990085601807
aF0.6247450113296509
aF0.20389951765537262
aa(lp135
F1611228960.752598
aF0.29287317395210266
aF-0.31893864274024963
aF0.38719484210014343
aF-0.533731997013092
aF0.5320766568183899
aF0.6249169111251831
aF0.2037242203950882
aa(lp136
F1611228960.762667
aF0.2928871214389801
aF-0.3189529776573181
aF0.3872351050376892
aF-0.5336100459098816
aF0.532012939453125
aF0.6251009702682495
aF0.20364515483379364
aa(lp137
F1611228960.772648
aF0.29292017221450806
aF-0.31900081038475037
aF0.3872266709804535
aF-0.5335933566093445
aF0.5320016741752625
aF0.6250271201133728
aF0.20394520461559296
aa(lp138
F1611228960.773308
aF0.2929151654243469
aF-0.31901678442955017
aF0.3872706890106201
aF-0.5337258577346802
aF0.5321232676506042
aF0.6248008608818054
aF0.20397432148456573
aa(lp139
F1611228960.782583
aF0.29292652010917664
aF-0.31903642416000366
aF0.38730478286743164
aF-0.5336015820503235
aF0.5320270657539368
aF0.6250421404838562
aF0.20381128787994385
aa(lp140
F1611228960.792634
aF0.29301518201828003
aF-0.3191196024417877
aF0.38735857605934143
aF-0.5322636365890503
aF0.5339099764823914
aF0.6241475343704224
aF0.20512299239635468
aa(lp141
F1611228960.802636
aF0.2930395007133484
aF-0.31916654109954834
aF0.3874818980693817
aF-0.5323441028594971
aF0.5341622829437256
aF0.6238267421722412
aF0.20523343980312347
aa(lp142
F1611228960.832589
aF0.2930622696876526
aF-0.3192960023880005
aF0.38795095682144165
aF-0.532569944858551
aF0.5338659286499023
aF0.6241985559463501
aF0.20428556203842163
aa(lp143
F1611228960.842528
aF0.29303210973739624
aF-0.3192600905895233
aF0.38811397552490234
aF-0.5335447192192078
aF0.532819390296936
aF0.6244425773620605
aF0.2037280946969986
aa(lp144
F1611228960.852572
aF0.2931726276874542
aF-0.31943708658218384
aF0.388082891702652
aF-0.5314699411392212
aF0.5302177667617798
aF0.6291854381561279
aF0.20133167505264282
aa(lp145
F1611228960.882504
aF0.29296714067459106
aF-0.31927913427352905
aF0.3885902464389801
aF-0.5346537828445435
aF0.5324004292488098
aF0.6241152882575989
aF0.20291703939437866
aa(lp146
F1611228960.892565
aF0.29294952750205994
aF-0.3192744851112366
aF0.38868099451065063
aF-0.5349656343460083
aF0.5320211052894592
aF0.624281644821167
aF0.20257799327373505
aa(lp147
F1611228960.902635
aF0.29314032196998596
aF-0.3194180130958557
aF0.3886256515979767
aF-0.5327045321464539
aF0.5279206037521362
aF0.6303890347480774
aF0.20033816993236542
aa(lp148
F1611228960.912646
aF0.2930738627910614
aF-0.31938841938972473
aF0.3887704610824585
aF-0.5323833227157593
aF0.5290880799293518
aF0.629638135433197
aF0.20047356188297272
aa(lp149
F1611228960.92264
aF0.29295334219932556
aF-0.3193047344684601
aF0.38885417580604553
aF-0.5338605642318726
aF0.5295425057411194
aF0.6279009580612183
aF0.20079384744167328
aa(lp150
F1611228960.923287
aF0.2929359972476959
aF-0.3192793130874634
aF0.3889135718345642
aF-0.5337751507759094
aF0.5293868184089661
aF0.6281190514564514
aF0.20074893534183502
aa(lp151
F1611228960.932609
aF0.2927606701850891
aF-0.3191073536872864
aF0.38915273547172546
aF-0.5355556011199951
aF0.5324403643608093
aF0.6235442161560059
aF0.20218856632709503
aa(lp152
F1611228960.942596
aF0.2927531599998474
aF-0.31912076473236084
aF0.38915538787841797
aF-0.5346697568893433
aF0.5333252549171448
aF0.6234381794929504
aF0.20252758264541626
aa(lp153
F1611228960.952614
aF0.29271847009658813
aF-0.319084107875824
aF0.3892097771167755
aF-0.5345374345779419
aF0.5334135890007019
aF0.6235032081604004
aF0.2024436742067337
aa(lp154
F1611228960.962586
aF0.2926802933216095
aF-0.31903624534606934
aF0.3892618417739868
aF-0.534558892250061
aF0.5334143042564392
aF0.6234767436981201
aF0.202466681599617
aa(lp155
F1611228960.972681
aF0.29264307022094727
aF-0.31900152564048767
aF0.3893051743507385
aF-0.5344934463500977
aF0.5333824753761292
aF0.6235840916633606
aF0.20239263772964478
aa(lp156
F1611228960.97322
aF0.29257962107658386
aF-0.3189438581466675
aF0.38933825492858887
aF-0.5343320369720459
aF0.5334790349006653
aF0.6236695051193237
aF0.2023015171289444
aa(lp157
F1611228960.982601
aF0.29252731800079346
aF-0.3189121186733246
aF0.3893391191959381
aF-0.5338058471679688
aF0.5338608622550964
aF0.623547375202179
aF0.20305803418159485
aa(lp158
F1611228960.992639
aF0.29247337579727173
aF-0.31885620951652527
aF0.38932767510414124
aF-0.5338590741157532
aF0.5342195630073547
aF0.6231523156166077
aF0.20318768918514252
aa(lp159
F1611228961.0326
aF0.2926224172115326
aF-0.31890714168548584
aF0.3888935446739197
aF-0.5311792492866516
aF0.5283892750740051
aF0.6311946511268616
aF0.20061583817005157
aa(lp160
F1611228961.072551
aF0.2923364043235779
aF-0.3186328411102295
aF0.3887566328048706
aF-0.5341283679008484
aF0.5329278111457825
aF0.6238825917243958
aF0.20363086462020874
aa(lp161
F1611228961.082532
aF0.29235589504241943
aF-0.31861788034439087
aF0.3887037932872772
aF-0.5341737270355225
aF0.532989501953125
aF0.6237993240356445
aF0.20360532402992249
aa(lp162
F1611228961.092639
aF0.2923735976219177
aF-0.3186286985874176
aF0.3886857330799103
aF-0.534295380115509
aF0.5330063700675964
aF0.6236618757247925
aF0.203663170337677
aa(lp163
F1611228961.102598
aF0.2924446761608124
aF-0.31865087151527405
aF0.3886372148990631
aF-0.5340787768363953
aF0.5324503183364868
aF0.6243607401847839
aF0.2035442739725113
aa(lp164
F1611228961.112599
aF0.2924862802028656
aF-0.31863880157470703
aF0.38863858580589294
aF-0.5341933965682983
aF0.5327929258346558
aF0.6239842772483826
aF0.2035016268491745
aa(lp165
F1611228961.122619
aF0.2928338944911957
aF-0.3189200758934021
aF0.3883728086948395
aF-0.5318522453308105
aF0.5285510420799255
aF0.6306034922599792
aF0.2002655565738678
aa(lp166
F1611228961.13262
aF0.29264578223228455
aF-0.31868234276771545
aF0.3884906768798828
aF-0.535449743270874
aF0.5313135981559753
aF0.6244304180145264
aF0.20269732177257538
aa(lp167
F1611228961.142611
aF0.29257991909980774
aF-0.3186238408088684
aF0.3884846568107605
aF-0.5373260378837585
aF0.5292993783950806
aF0.6250939965248108
aF0.20094874501228333
aa(lp168
F1611228961.152568
aF0.29260608553886414
aF-0.318636417388916
aF0.3884381949901581
aF-0.5378537178039551
aF0.5291429758071899
aF0.6247701644897461
aF0.2009562999010086
aa(lp169
F1611228961.162533
aF0.2926497757434845
aF-0.31866398453712463
aF0.38838717341423035
aF-0.5378642678260803
aF0.5291318297386169
aF0.6248366832733154
aF0.2007501870393753
aa(lp170
F1611228961.172522
aF0.2930852174758911
aF-0.3190288841724396
aF0.3880388140678406
aF-0.5333542823791504
aF0.527283787727356
aF0.6304057240486145
aF0.20023401081562042
aa(lp171
F1611228961.173152
aF0.2932150661945343
aF-0.31906551122665405
aF0.3879750072956085
aF-0.5326573252677917
aF0.527143120765686
aF0.6310139298439026
aF0.2005433738231659
aa(lp172
F1611228961.182565
aF0.2932814061641693
aF-0.31910440325737
aF0.38797837495803833
aF-0.5325566530227661
aF0.5271779298782349
aF0.6311206221580505
aF0.20038378238677979
aa(lp173
F1611228961.192577
aF0.29332467913627625
aF-0.3191629648208618
aF0.3879780173301697
aF-0.5329367518424988
aF0.5277211666107178
aF0.6303299069404602
aF0.20043237507343292
aa(lp174
F1611228961.202568
aF0.2933938801288605
aF-0.31919774413108826
aF0.38799557089805603
aF-0.5329846143722534
aF0.527355968952179
aF0.6306045651435852
aF0.2004019320011139
aa(lp175
F1611228961.212607
aF0.29324227571487427
aF-0.31906694173812866
aF0.38815703988075256
aF-0.5353468060493469
aF0.5321598052978516
aF0.6237521171569824
aF0.20283770561218262
aa(lp176
F1611228961.222604
aF0.29318293929100037
aF-0.3190946877002716
aF0.3880237340927124
aF-0.5371277928352356
aF0.530005693435669
aF0.624482274055481
aF0.20151859521865845
aa(lp177
F1611228961.223187
aF0.29318907856941223
aF-0.3191370964050293
aF0.3879888355731964
aF-0.5367075800895691
aF0.5296733379364014
aF0.6252437233924866
aF0.20115025341510773
aa(lp178
F1611228961.422621
aF0.29310205578804016
aF-0.31935906410217285
aF0.3885090947151184
aF-0.5338206887245178
aF0.5282801389694214
aF0.6291024684906006
aF0.20046359300613403
aa(lp179
F1611228961.423231
aF0.2929420471191406
aF-0.31924161314964294
aF0.3885427415370941
aF-0.5349390506744385
aF0.5283429622650146
aF0.6279879808425903
aF0.20081084966659546
aa(lp180
F1611228961.432625
aF0.29287031292915344
aF-0.31926727294921875
aF0.38854536414146423
aF-0.5327221751213074
aF0.5293449759483337
aF0.6290305852890015
aF0.20080208778381348
aa(lp181
F1611228961.452637
aF0.29271528124809265
aF-0.31913015246391296
aF0.38840389251708984
aF-0.5319230556488037
aF0.5274698138237
aF0.6314603090286255
aF0.20022821426391602
aa(lp182
F1611228961.462626
aF0.29233619570732117
aF-0.3188638389110565
aF0.38846907019615173
aF-0.5344192385673523
aF0.5328209400177002
aF0.6237145662307739
aF0.20366215705871582
aa(lp183
F1611228961.472599
aF0.2922431230545044
aF-0.31879284977912903
aF0.38840949535369873
aF-0.5345315933227539
aF0.5329099893569946
aF0.6234757304191589
aF0.20386512577533722
aa(lp184
F1611228961.473215
aF0.2921504080295563
aF-0.3187134861946106
aF0.3883487582206726
aF-0.5345670580863953
aF0.5329058170318604
aF0.6235917210578918
aF0.20342789590358734
aa(lp185
F1611228961.482591
aF0.29209694266319275
aF-0.3186491131782532
aF0.3883381485939026
aF-0.5345706939697266
aF0.533271849155426
aF0.6231631636619568
aF0.20377205312252045
aa(lp186
F1611228961.492603
aF0.29206788539886475
aF-0.31859809160232544
aF0.3882944583892822
aF-0.534231960773468
aF0.5332865118980408
aF0.6233923435211182
aF0.2039211094379425
aa(lp187
F1611228961.502647
aF0.292069673538208
aF-0.3185499608516693
aF0.38828378915786743
aF-0.5342720746994019
aF0.5341013669967651
aF0.6225106120109558
aF0.204376682639122
aa(lp188
F1611228961.512637
aF0.2920421063899994
aF-0.3185103237628937
aF0.3882346451282501
aF-0.5344802141189575
aF0.534498393535614
aF0.6219505071640015
aF0.20449919998645782
aa(lp189
F1611228961.522586
aF0.2920246720314026
aF-0.31837934255599976
aF0.3880999982357025
aF-0.5345515012741089
aF0.5342075228691101
aF0.6221522092819214
aF0.20445962250232697
aa(lp190
F1611228961.542572
aF0.29215458035469055
aF-0.3185212314128876
aF0.38777846097946167
aF-0.5318812131881714
aF0.5305237174034119
aF0.6283790469169617
aF0.20195744931697845
aa(lp191
F1611228961.552587
aF0.29190847277641296
aF-0.3182252049446106
aF0.3878439664840698
aF-0.5347350835800171
aF0.533677339553833
aF0.6223317384719849
aF0.20481732487678528
aa(lp192
F1611228961.562562
aF0.29207295179367065
aF-0.31842198967933655
aF0.3876182734966278
aF-0.5317186117172241
aF0.5299420356750488
aF0.6289557814598083
aF0.20211738348007202
aa(lp193
F1611228961.572586
aF0.2920512557029724
aF-0.31839802861213684
aF0.3875060975551605
aF-0.5320085883140564
aF0.5298247933387756
aF0.6287640929222107
aF0.20225833356380463
aa(lp194
F1611228961.573194
aF0.2918756604194641
aF-0.31815260648727417
aF0.387546181678772
aF-0.534895122051239
aF0.5328501462936401
aF0.6227868795394897
aF0.2051697075366974
aa(lp195
F1611228961.582586
aF0.29190585017204285
aF-0.31813159584999084
aF0.3875006139278412
aF-0.5350207090377808
aF0.5328434705734253
aF0.6226450800895691
aF0.20528966188430786
aa(lp196
F1611228961.592568
aF0.29194408655166626
aF-0.31811752915382385
aF0.3874897360801697
aF-0.5353390574455261
aF0.5325842499732971
aF0.6226451396942139
aF0.20513200759887695
aa(lp197
F1611228961.602547
aF0.2920173406600952
aF-0.31808924674987793
aF0.3874932527542114
aF-0.5353377461433411
aF0.5325972437858582
aF0.6226728558540344
aF0.20501752197742462
aa(lp198
F1611228961.612669
aF0.2922694981098175
aF-0.31830230355262756
aF0.38742703199386597
aF-0.5325611233711243
aF0.5294836759567261
aF0.6286216378211975
aF0.20214001834392548
aa(lp199
F1611228961.622651
aF0.2921242117881775
aF-0.3180479109287262
aF0.38764533400535583
aF-0.5356529951095581
aF0.5330960154533386
aF0.6220111846923828
aF0.20490624010562897
aa(lp200
F1611228961.623254
aF0.2921675741672516
aF-0.3181433081626892
aF0.3875649869441986
aF-0.535737931728363
aF0.5302547812461853
aF0.6254531741142273
aF0.20155192911624908
aa(lp201
F1611228961.632598
aF0.29247012734413147
aF-0.31826356053352356
aF0.3875998854637146
aF-0.5327367186546326
aF0.5292419791221619
aF0.6289048194885254
aF0.20142842829227448
aa(lp202
F1611228961.642565
aF0.2925318777561188
aF-0.3182571530342102
aF0.387656033039093
aF-0.532575249671936
aF0.5291655659675598
aF0.6291356682777405
aF0.20133523643016815
aa(lp203
F1611228961.652629
aF0.2926134169101715
aF-0.3182618021965027
aF0.38767850399017334
aF-0.5333196520805359
aF0.5292184352874756
aF0.6285475492477417
aF0.20106211304664612
aa(lp204
F1611228961.662608
aF0.2926850914955139
aF-0.31826573610305786
aF0.38767990469932556
aF-0.5332982540130615
aF0.5294769406318665
aF0.6282891631126404
aF0.2012457698583603
aa(lp205
F1611228961.672658
aF0.2924157381057739
aF-0.31803709268569946
aF0.38774222135543823
aF-0.5385215282440186
aF0.5302809476852417
aF0.6230398416519165
aF0.20153915882110596
aa(lp206
F1611228961.673211
aF0.29248055815696716
aF-0.3180435597896576
aF0.3877464532852173
aF-0.538882851600647
aF0.5304836630821228
aF0.6225810647010803
aF0.2014578878879547
aa(lp207
F1611228961.682601
aF0.29261642694473267
aF-0.318042516708374
aF0.3876848816871643
aF-0.5387519598007202
aF0.5296471118927002
aF0.6233808994293213
aF0.20153583586215973
aa(lp208
F1611228961.692596
aF0.2931813895702362
aF-0.3183479309082031
aF0.3876117765903473
aF-0.5322510600090027
aF0.5282706618309021
aF0.6301185488700867
aF0.20146837830543518
aa(lp209
F1611228961.702666
aF0.29304444789886475
aF-0.3181954324245453
aF0.3878152072429657
aF-0.5349675416946411
aF0.532335102558136
aF0.623418927192688
aF0.20439694821834564
aa(lp210
F1611228961.712553
aF0.2931409478187561
aF-0.31821247935295105
aF0.387859970331192
aF-0.534864604473114
aF0.5327534675598145
aF0.6232171058654785
aF0.20419110357761383
aa(lp211
F1611228961.722648
aF0.29319480061531067
aF-0.31829702854156494
aF0.38789668679237366
aF-0.5348594188690186
aF0.5321843028068542
aF0.6236366033554077
aF0.20440800487995148
aa(lp212
F1611228961.723248
aF0.29323485493659973
aF-0.31832027435302734
aF0.38795915246009827
aF-0.5349137187004089
aF0.5325741171836853
aF0.623285710811615
aF0.20432092249393463
aa(lp213
F1611228961.732594
aF0.29326799511909485
aF-0.3183576762676239
aF0.38795557618141174
aF-0.5348285436630249
aF0.5324456691741943
aF0.6234925389289856
aF0.2042476087808609
aa(lp214
F1611228961.742623
aF0.2932983338832855
aF-0.3183998763561249
aF0.3879353404045105
aF-0.5346904397010803
aF0.5320124626159668
aF0.6239728331565857
aF0.2042718082666397
aa(lp215
F1611228961.752579
aF0.2933114171028137
aF-0.3184274733066559
aF0.38791903853416443
aF-0.5344710946083069
aF0.5320615768432617
aF0.6241311430931091
aF0.2042340189218521
aa(lp216
F1611228961.762614
aF0.2933225929737091
aF-0.31846606731414795
aF0.3879280388355255
aF-0.5344971418380737
aF0.5323051810264587
aF0.6238969564437866
aF0.20424671471118927
aa(lp217
F1611228961.772619
aF0.29334840178489685
aF-0.31850945949554443
aF0.3879227638244629
aF-0.5343247652053833
aF0.532037079334259
aF0.6242668628692627
aF0.20426592230796814
aa(lp218
F1611228961.773225
aF0.29335668683052063
aF-0.3185495138168335
aF0.387952983379364
aF-0.5342670679092407
aF0.532194972038269
aF0.6241883039474487
aF0.20424534380435944
aa(lp219
F1611228961.782542
aF0.29336315393447876
aF-0.318584144115448
aF0.38797903060913086
aF-0.5343192219734192
aF0.5324772000312805
aF0.6239069104194641
aF0.2042333036661148
aa(lp220
F1611228961.792613
aF0.2936761975288391
aF-0.31883707642555237
aF0.38778185844421387
aF-0.5317762494087219
aF0.5263515710830688
aF0.6321874856948853
aF0.20126353204250336
aa(lp221
F1611228961.802617
aF0.29359081387519836
aF-0.3188323974609375
aF0.38780033588409424
aF-0.5332273840904236
aF0.5269867181777954
aF0.6304991841316223
aF0.20105797052383423
aa(lp222
F1611228961.812563
aF0.2933192849159241
aF-0.31871217489242554
aF0.38779154419898987
aF-0.5372443199157715
aF0.5293692946434021
aF0.6248783469200134
aF0.2016528695821762
aa(lp223
F1611228961.82262
aF0.2933264672756195
aF-0.3187428116798401
aF0.3877677321434021
aF-0.5371980667114258
aF0.5289841294288635
aF0.6253106594085693
aF0.20144665241241455
aa(lp224
F1611228961.823234
aF0.29330578446388245
aF-0.31875079870224
aF0.3877680003643036
aF-0.5372840762138367
aF0.5290542840957642
aF0.6251822710037231
aF0.20143140852451324
aa(lp225
F1611228961.832636
aF0.29327407479286194
aF-0.31876665353775024
aF0.3877893388271332
aF-0.5372970104217529
aF0.5291466116905212
aF0.6250836253166199
aF0.20146068930625916
aa(lp226
F1611228961.84265
aF0.2932606041431427
aF-0.3187497854232788
aF0.38781341910362244
aF-0.5369252562522888
aF0.5276938676834106
aF0.6267974376678467
aF0.2009361982345581
aa(lp227
F1611228961.852627
aF0.2932257652282715
aF-0.318735271692276
aF0.3878672122955322
aF-0.5369120240211487
aF0.5280711054801941
aF0.6263858675956726
aF0.20126420259475708
aa(lp228
F1611228961.862616
aF0.2935105562210083
aF-0.31893643736839294
aF0.3878847360610962
aF-0.5316251516342163
aF0.5273467898368835
aF0.6315855979919434
aF0.2009468376636505
aa(lp229
F1611228961.872586
aF0.2934906482696533
aF-0.31893113255500793
aF0.3878850042819977
aF-0.5320010185241699
aF0.5266848206520081
aF0.6318163871765137
aF0.20096276700496674
aa(lp230
F1611228961.87326
aF0.2931487560272217
aF-0.3187033236026764
aF0.38808709383010864
aF-0.5343248248100281
aF0.5328635573387146
aF0.623604953289032
aF0.20413289964199066
aa(lp231
F1611228961.882557
aF0.29289522767066956
aF-0.3185468912124634
aF0.38822734355926514
aF-0.5378514528274536
aF0.5289084911346436
aF0.6248247027397156
aF0.2014094591140747
aa(lp232
F1611228961.892653
aF0.2927948534488678
aF-0.3185204565525055
aF0.3882520794868469
aF-0.5380297899246216
aF0.5294227600097656
aF0.6240767240524292
aF0.2019004374742508
aa(lp233
F1611228961.902555
aF0.29268956184387207
aF-0.31848496198654175
aF0.38831520080566406
aF-0.5386014580726624
aF0.5287666916847229
aF0.6242272853851318
aF0.2016298919916153
aa(lp234
F1611228961.912536
aF0.292611300945282
aF-0.3184535801410675
aF0.3883175253868103
aF-0.538715124130249
aF0.5290592312812805
aF0.6238470673561096
aF0.20173552632331848
aa(lp235
F1611228961.922638
aF0.2925335168838501
aF-0.3184272348880768
aF0.3883312940597534
aF-0.5389361381530762
aF0.5293316841125488
aF0.6234126687049866
aF0.20177379250526428
aa(lp236
F1611228961.923241
aF0.2926124334335327
aF-0.31851983070373535
aF0.38821807503700256
aF-0.5362964868545532
aF0.5323866009712219
aF0.6224028468132019
aF0.20387563109397888
aa(lp237
F1611228961.93256
aF0.2925778031349182
aF-0.318491667509079
aF0.38818904757499695
aF-0.5363777875900269
aF0.5323983430862427
aF0.6222702264785767
aF0.20403604209423065
aa(lp238
F1611228961.94255
aF0.29250550270080566
aF-0.3184436559677124
aF0.38814234733581543
aF-0.5361311435699463
aF0.5326769351959229
aF0.622287392616272
aF0.20390497148036957
aa(lp239
F1611228961.952639
aF0.292388379573822
aF-0.31838878989219666
aF0.38810965418815613
aF-0.5357903242111206
aF0.5334559679031372
aF0.621660590171814
aF0.2046741098165512
aa(lp240
F1611228961.96261
aF0.29254046082496643
aF-0.3185890018939972
aF0.387858510017395
aF-0.5326759219169617
aF0.5301027297973633
aF0.6281130313873291
aF0.201795756816864
aa(lp241
F1611228961.972531
aF0.2924344837665558
aF-0.3185335099697113
aF0.3878113627433777
aF-0.532646894454956
aF0.5301415324211121
aF0.6280051469802856
aF0.20210568606853485
aa(lp242
F1611228961.973136
aF0.29213830828666687
aF-0.318241149187088
aF0.38794466853141785
aF-0.5355691909790039
aF0.5335496664047241
aF0.6216047406196594
aF0.20517800748348236
aa(lp243
F1611228961.982601
aF0.29224953055381775
aF-0.31843429803848267
aF0.38778555393218994
aF-0.5325522422790527
aF0.5302082300186157
aF0.6279427409172058
aF0.2023741751909256
aa(lp244
F1611228961.992584
aF0.2919537127017975
aF-0.31813937425613403
aF0.38791194558143616
aF-0.5353052616119385
aF0.5336958169937134
aF0.6216881275177002
aF0.2052338570356369
aa(lp245
F1611228962.002535
aF0.29188206791877747
aF-0.3180975615978241
aF0.38789013028144836
aF-0.5353304147720337
aF0.5336953401565552
aF0.6216357946395874
aF0.2053283154964447
aa(lp246
F1611228962.01262
aF0.29182347655296326
aF-0.3180682957172394
aF0.38784754276275635
aF-0.5352993011474609
aF0.5336644649505615
aF0.6216540336608887
aF0.20543424785137177
aa(lp247
F1611228962.022621
aF0.2917596995830536
aF-0.31803837418556213
aF0.3877973258495331
aF-0.5352646708488464
aF0.5338857173919678
aF0.6213923096656799
aF0.20574094355106354
aa(lp248
F1611228962.023261
aF0.2917109429836273
aF-0.31802627444267273
aF0.3876863718032837
aF-0.5352670550346375
aF0.5337809920310974
aF0.6214244365692139
aF0.20590968430042267
aa(lp249
F1611228962.032535
aF0.2915754020214081
aF-0.317929744720459
aF0.3876299262046814
aF-0.5369490385055542
aF0.5321441292762756
aF0.6217933297157288
aF0.20464937388896942
aa(lp250
F1611228962.042672
aF0.2916059195995331
aF-0.31797221302986145
aF0.38752442598342896
aF-0.5355539321899414
aF0.5337173938751221
aF0.6211105585098267
aF0.20627515017986298
aa(lp251
F1611228962.052589
aF0.2915852963924408
aF-0.31794893741607666
aF0.38742733001708984
aF-0.5357103943824768
aF0.5337889194488525
aF0.620898425579071
aF0.20632268488407135
aa(lp252
F1611228962.062663
aF0.29146987199783325
aF-0.317854106426239
aF0.3873298764228821
aF-0.5370342135429382
aF0.5324088931083679
aF0.6214497089385986
aF0.20478129386901855
aa(lp253
F1611228962.072623
aF0.2914390563964844
aF-0.31782612204551697
aF0.38725411891937256
aF-0.5371136665344238
aF0.5322859883308411
aF0.621478259563446
aF0.20480561256408691
aa(lp254
F1611228962.073236
aF0.29140591621398926
aF-0.31780681014060974
aF0.38721245527267456
aF-0.5372086763381958
aF0.532541036605835
aF0.6211265325546265
aF0.20496033132076263
aa(lp255
F1611228962.082575
aF0.2913948893547058
aF-0.3178011178970337
aF0.38715463876724243
aF-0.5373108386993408
aF0.5322266817092896
aF0.6212838292121887
aF0.2050321251153946
aa(lp256
F1611228962.092563
aF0.2913620173931122
aF-0.3177657723426819
aF0.3871210217475891
aF-0.5369934439659119
aF0.5328683853149414
aF0.6208677291870117
aF0.2054571658372879
aa(lp257
F1611228962.102578
aF0.29132214188575745
aF-0.31772932410240173
aF0.3870593309402466
aF-0.5368222594261169
aF0.5325165390968323
aF0.6214472651481628
aF0.20506417751312256
aa(lp258
F1611228962.112587
aF0.2913116216659546
aF-0.31772416830062866
aF0.3870421051979065
aF-0.5368676781654358
aF0.5326775312423706
aF0.621296226978302
aF0.20498472452163696
aa(lp259
F1611228962.122588
aF0.2913149297237396
aF-0.31772956252098083
aF0.3870292007923126
aF-0.5367060899734497
aF0.5325426459312439
aF0.621514081954956
aF0.20509794354438782
aa(lp260
F1611228962.123235
aF0.2913312315940857
aF-0.31773313879966736
aF0.3870268762111664
aF-0.5365987420082092
aF0.532688319683075
aF0.6214826703071594
aF0.2050958126783371
aa(lp261
F1611228962.132607
aF0.2913438379764557
aF-0.3177468478679657
aF0.38702771067619324
aF-0.5366507172584534
aF0.5325639247894287
aF0.6215780377388
aF0.2049936056137085
aa(lp262
F1611228962.142627
aF0.29138436913490295
aF-0.31779158115386963
aF0.38702040910720825
aF-0.537028431892395
aF0.5322536826133728
aF0.6215903759002686
aF0.20477288961410522
aa(lp263
F1611228962.152601
aF0.2914286255836487
aF-0.31783515214920044
aF0.38697752356529236
aF-0.5372840166091919
aF0.5319575071334839
aF0.621705949306488
aF0.20452086627483368
aa(lp264
F1611228962.162574
aF0.2914765775203705
aF-0.3178686797618866
aF0.3869486153125763
aF-0.5374161005020142
aF0.531981885433197
aF0.6216175556182861
aF0.2043791115283966
aa(lp265
F1611228962.172587
aF0.2915251851081848
aF-0.3179113566875458
aF0.38690412044525146
aF-0.5375317931175232
aF0.531578004360199
aF0.6218750476837158
aF0.20434245467185974
aa(lp266
F1611228962.17321
aF0.291566401720047
aF-0.31793853640556335
aF0.38686150312423706
aF-0.5376988649368286
aF0.5313728451728821
aF0.6219505667686462
aF0.2042068988084793
aa(lp267
F1611228962.182575
aF0.29160773754119873
aF-0.3179907500743866
aF0.38683366775512695
aF-0.5375739932060242
aF0.5314927101135254
aF0.6219321489334106
aF0.20427949726581573
aa(lp268
F1611228962.192604
aF0.2916260063648224
aF-0.31802505254745483
aF0.38682445883750916
aF-0.5374866127967834
aF0.531453013420105
aF0.6220378279685974
aF0.2042911797761917
aa(lp269
F1611228962.202616
aF0.29166173934936523
aF-0.3180669844150543
aF0.3868114948272705
aF-0.5376250743865967
aF0.53121018409729
aF0.6222227215766907
aF0.20399504899978638
aa(lp270
F1611228962.212523
aF0.29167330265045166
aF-0.3181173503398895
aF0.3867988586425781
aF-0.5376090407371521
aF0.5314897298812866
aF0.6219727993011475
aF0.2040710151195526
aa(lp271
F1611228962.222628
aF0.2917359173297882
aF-0.3182013928890228
aF0.38673317432403564
aF-0.5369005799293518
aF0.5316817760467529
aF0.6224592328071594
aF0.2039528340101242
aa(lp272
F1611228962.223188
aF0.29176661372184753
aF-0.31825608015060425
aF0.3867035210132599
aF-0.5367912650108337
aF0.531310498714447
aF0.6228594779968262
aF0.2039865255355835
aa(lp273
F1611228962.232604
aF0.2917773127555847
aF-0.31830358505249023
aF0.3866965174674988
aF-0.5368161797523499
aF0.5317714810371399
aF0.6224027276039124
aF0.20411357283592224
aa(lp274
F1611228962.2426
aF0.2918093800544739
aF-0.31835687160491943
aF0.3866909444332123
aF-0.5366808176040649
aF0.5316124558448792
aF0.6226688623428345
aF0.20407208800315857
aa(lp275
F1611228962.252621
aF0.2918529510498047
aF-0.3184230327606201
aF0.386710524559021
aF-0.5365428924560547
aF0.531516969203949
aF0.6229349374771118
aF0.20387166738510132
aa(lp276
F1611228962.262603
aF0.29196757078170776
aF-0.31854498386383057
aF0.3867300748825073
aF-0.5351172089576721
aF0.532755970954895
aF0.622702956199646
aF0.20508944988250732
aa(lp277
F1611228962.272584
aF0.2920197546482086
aF-0.31862378120422363
aF0.3868027627468109
aF-0.5352529883384705
aF0.5332813262939453
aF0.6219443678855896
aF0.20567087829113007
aa(lp278
F1611228962.273243
aF0.29206719994544983
aF-0.31868302822113037
aF0.3869241774082184
aF-0.5355597138404846
aF0.5329704880714417
aF0.6218987703323364
aF0.20581603050231934
aa(lp279
F1611228962.282553
aF0.29239946603775024
aF-0.31902188062667847
aF0.3868827223777771
aF-0.5315181612968445
aF0.5281897783279419
aF0.6305857300758362
aF0.20215247571468353
aa(lp280
F1611228962.292583
aF0.29217255115509033
aF-0.3188353478908539
aF0.3870755136013031
aF-0.5352929830551147
aF0.5330063700675964
aF0.6220611929893494
aF0.2059263288974762
aa(lp281
F1611228962.302546
aF0.2922012209892273
aF-0.3188832104206085
aF0.38717353343963623
aF-0.5354533195495605
aF0.5330359935760498
aF0.6219436526298523
aF0.20578740537166595
aa(lp282
F1611228962.31256
aF0.292226642370224
aF-0.31893470883369446
aF0.38727232813835144
aF-0.5355230569839478
aF0.5333627462387085
aF0.6216436624526978
aF0.20566579699516296
aa(lp283
F1611228962.322615
aF0.29225847125053406
aF-0.31896355748176575
aF0.3874151408672333
aF-0.5355627536773682
aF0.5338847637176514
aF0.6211585402488708
aF0.2056739777326584
aa(lp284
F1611228962.332592
aF0.2926344871520996
aF-0.3193259537220001
aF0.38751155138015747
aF-0.5322403311729431
aF0.5297864675521851
aF0.6287053227424622
aF0.2019314020872116
aa(lp285
F1611228962.34261
aF0.2924847900867462
aF-0.31915026903152466
aF0.3877217173576355
aF-0.5354163646697998
aF0.5334535241127014
aF0.6220775246620178
aF0.20439255237579346
aa(lp286
F1611228962.352615
aF0.29255831241607666
aF-0.3192053437232971
aF0.38790687918663025
aF-0.5352761745452881
aF0.5332422852516174
aF0.6222883462905884
aF0.20466920733451843
aa(lp287
F1611228962.362541
aF0.29263925552368164
aF-0.31924983859062195
aF0.38811150193214417
aF-0.535382866859436
aF0.5327667593955994
aF0.6225318908691406
aF0.20488764345645905
aa(lp288
F1611228962.372553
aF0.2926825284957886
aF-0.31932348012924194
aF0.38822633028030396
aF-0.5351925492286682
aF0.5329712629318237
aF0.6226159930229187
aF0.20459717512130737
aa(lp289
F1611228962.382651
aF0.29266875982284546
aF-0.31934526562690735
aF0.3882361650466919
aF-0.5352196097373962
aF0.5329772233963013
aF0.6225965619087219
aF0.20456969738006592
aa(lp290
F1611228962.392586
aF0.2926590144634247
aF-0.31935936212539673
aF0.3882201611995697
aF-0.5350701212882996
aF0.5329446792602539
aF0.6227239966392517
aF0.20465758442878723
aa(lp291
F1611228962.402524
aF0.2926214337348938
aF-0.3193541169166565
aF0.3882042467594147
aF-0.5350971221923828
aF0.5332252383232117
aF0.6224077343940735
aF0.20481829345226288
aa(lp292
F1611228962.412607
aF0.29259318113327026
aF-0.31935909390449524
aF0.3881758153438568
aF-0.5351695418357849
aF0.5330869555473328
aF0.6224470138549805
aF0.20486976206302643
aa(lp293
F1611228962.42256
aF0.29256272315979004
aF-0.31935691833496094
aF0.38816016912460327
aF-0.5353595018386841
aF0.5333639979362488
aF0.6220780611038208
aF0.2047729343175888
aa(lp294
F1611228962.423219
aF0.2925691604614258
aF-0.31936386227607727
aF0.3881094455718994
aF-0.535374641418457
aF0.5327573418617249
aF0.6226164102554321
aF0.20467668771743774
aa(lp295
F1611228962.432588
aF0.29253262281417847
aF-0.31936323642730713
aF0.38800638914108276
aF-0.5352783203125
aF0.5330044627189636
aF0.6226502060890198
aF0.204181507229805
aa(lp296
F1611228962.442642
aF0.2925323247909546
aF-0.31932762265205383
aF0.3880356252193451
aF-0.5351353883743286
aF0.5332205891609192
aF0.6222735643386841
aF0.2051379233598709
aa(lp297
F1611228962.452639
aF0.29252833127975464
aF-0.319311261177063
aF0.3879142999649048
aF-0.5350022912025452
aF0.5337864756584167
aF0.6221224069595337
aF0.20447053015232086
aa(lp298
F1611228962.462658
aF0.29254186153411865
aF-0.31930458545684814
aF0.38786110281944275
aF-0.5352422595024109
aF0.5336419343948364
aF0.6220759749412537
aF0.20436130464076996
aa(lp299
F1611228962.47262
aF0.2925718128681183
aF-0.31929320096969604
aF0.38787946105003357
aF-0.5352030396461487
aF0.5336295962333679
aF0.62179034948349
aF0.20536302030086517
aa(lp300
F1611228962.47318
aF0.2925572693347931
aF-0.3192894756793976
aF0.3877815306186676
aF-0.5351521968841553
aF0.5334824919700623
aF0.6222046613693237
aF0.20462150871753693
aa(lp301
F1611228962.482553
aF0.29254549741744995
aF-0.31926652789115906
aF0.3877480626106262
aF-0.5351185202598572
aF0.5337449312210083
aF0.6219332814216614
aF0.204849973320961
aa(lp302
F1611228962.492597
aF0.29255411028862
aF-0.31925877928733826
aF0.387637734413147
aF-0.5350185036659241
aF0.5336441993713379
aF0.6221767067909241
aF0.20463474094867706
aa(lp303
F1611228962.502609
aF0.2925434708595276
aF-0.3192438781261444
aF0.3875685930252075
aF-0.5349653363227844
aF0.5335880517959595
aF0.6222264170646667
aF0.20476876199245453
aa(lp304
F1611228962.512589
aF0.29255351424217224
aF-0.31922098994255066
aF0.3875187635421753
aF-0.5351150631904602
aF0.5334010720252991
aF0.6219885349273682
aF0.2055855095386505
aa(lp305
F1611228962.522647
aF0.2927379310131073
aF-0.3194376826286316
aF0.38730016350746155
aF-0.5319815278053284
aF0.5298632383346558
aF0.6287522912025452
aF0.20226553082466125
aa(lp306
F1611228962.532614
aF0.2925031781196594
aF-0.31916728615760803
aF0.38718459010124207
aF-0.5354781150817871
aF0.533475399017334
aF0.6215254664421082
aF0.2058478742837906
aa(lp307
F1611228962.542604
aF0.2925063967704773
aF-0.31917059421539307
aF0.3870891034603119
aF-0.5355973839759827
aF0.5332037210464478
aF0.6216177344322205
aF0.20596320927143097
aa(lp308
F1611228962.552588
aF0.29252737760543823
aF-0.3191693127155304
aF0.38702067732810974
aF-0.5357691049575806
aF0.5330184102058411
aF0.6216213703155518
aF0.20598486065864563
aa(lp309
F1611228962.562639
aF0.2925446629524231
aF-0.319169819355011
aF0.3869974613189697
aF-0.5358332991600037
aF0.5329353213310242
aF0.6216379404067993
aF0.20598284900188446
aa(lp310
F1611228962.572551
aF0.29259735345840454
aF-0.3191797733306885
aF0.3869932293891907
aF-0.5358268022537231
aF0.5330542325973511
aF0.6215209364891052
aF0.20604538917541504
aa(lp311
F1611228962.57321
aF0.29265838861465454
aF-0.31919875741004944
aF0.3870009481906891
aF-0.5358110666275024
aF0.5329612493515015
aF0.6216334700584412
aF0.20598728954792023
aa(lp312
F1611228962.582585
aF0.29273706674575806
aF-0.31920549273490906
aF0.3870336711406708
aF-0.5358557105064392
aF0.5334143042564392
aF0.6212005615234375
aF0.2060040682554245
aa(lp313
F1611228962.612597
aF0.2930072247982025
aF-0.31928345561027527
aF0.38720381259918213
aF-0.5358737111091614
aF0.5334411859512329
aF0.62105393409729
aF0.20632940530776978
aa(lp314
F1611228962.622621
aF0.29310721158981323
aF-0.31932148337364197
aF0.38724541664123535
aF-0.5358293652534485
aF0.5340927243232727
aF0.6204225420951843
aF0.2066584974527359
aa(lp315
F1611228962.623223
aF0.2931709289550781
aF-0.3193470239639282
aF0.3872464597225189
aF-0.535942792892456
aF0.5336275100708008
aF0.6207814812660217
aF0.20648817718029022
aa(lp316
F1611228962.63259
aF0.29314741492271423
aF-0.3193076252937317
aF0.38730210065841675
aF-0.5375271439552307
aF0.5317662954330444
aF0.6215292811393738
aF0.20491591095924377
aa(lp317
F1611228962.642647
aF0.293179988861084
aF-0.3193206191062927
aF0.38733580708503723
aF-0.5378678441047668
aF0.5313601493835449
aF0.6216755509376526
aF0.20463159680366516
aa(lp318
F1611228962.65265
aF0.2931554615497589
aF-0.31933170557022095
aF0.3874107003211975
aF-0.5381902456283569
aF0.5311641693115234
aF0.6215842962265015
aF0.20457027852535248
aa(lp319
F1611228962.662618
aF0.29313039779663086
aF-0.31934136152267456
aF0.3874926269054413
aF-0.5382722020149231
aF0.5316454768180847
aF0.6211086511611938
aF0.20454904437065125
aa(lp320
F1611228962.67268
aF0.2931286692619324
aF-0.31935957074165344
aF0.3875111937522888
aF-0.5381796956062317
aF0.5313790440559387
aF0.6215061545372009
aF0.2042771279811859
aa(lp321
F1611228962.67322
aF0.2932009994983673
aF-0.31945058703422546
aF0.38751885294914246
aF-0.5371428728103638
aF0.5328910946846008
aF0.6207280158996582
aF0.205429807305336
aa(lp322
F1611228962.682582
aF0.29314568638801575
aF-0.31944331526756287
aF0.38757312297821045
aF-0.5372194051742554
aF0.5332216024398804
aF0.6203455924987793
aF0.20552729070186615
aa(lp323
F1611228962.692629
aF0.293088436126709
aF-0.3194383382797241
aF0.3876051902770996
aF-0.5369142293930054
aF0.5334500670433044
aF0.6203497052192688
aF0.20571953058242798
aa(lp324
F1611228962.702632
aF0.2930244207382202
aF-0.3194422423839569
aF0.3876205384731293
aF-0.5372599363327026
aF0.5330362915992737
aF0.6205262541770935
aF0.205356627702713
aa(lp325
F1611228962.712561
aF0.2929883897304535
aF-0.31944137811660767
aF0.38768434524536133
aF-0.5374706387519836
aF0.5330402255058289
aF0.6202690601348877
aF0.20557193458080292
aa(lp326
F1611228962.72262
aF0.2929254174232483
aF-0.3194492757320404
aF0.387719988822937
aF-0.5375283360481262
aF0.5332162976264954
aF0.6200820803642273
aF0.20552858710289001
aa(lp327
F1611228962.723212
aF0.2928546965122223
aF-0.3194516599178314
aF0.3877580165863037
aF-0.5377352237701416
aF0.5333695411682129
aF0.6197577714920044
aF0.20556789636611938
aa(lp328
F1611228962.732551
aF0.29277941584587097
aF-0.3194544017314911
aF0.38779544830322266
aF-0.5379257202148438
aF0.5335420966148376
aF0.6194813847541809
aF0.20545454323291779
aa(lp329
F1611228962.742585
aF0.2925799489021301
aF-0.31940537691116333
aF0.38781821727752686
aF-0.5393498539924622
aF0.5305492281913757
aF0.6216976642608643
aF0.202759250998497
aa(lp330
F1611228962.752571
aF0.29249462485313416
aF-0.3194066286087036
aF0.38786447048187256
aF-0.5393872261047363
aF0.5304078459739685
aF0.6217855215072632
aF0.20276042819023132
aa(lp331
F1611228962.762626
aF0.29236501455307007
aF-0.3193932771682739
aF0.38793081045150757
aF-0.5395558476448059
aF0.5309868454933167
aF0.6211516857147217
aF0.20273908972740173
aa(lp332
F1611228962.782616
aF0.29187512397766113
aF-0.31931474804878235
aF0.38811442255973816
aF-0.5396866202354431
aF0.5315490365028381
aF0.6205739974975586
aF0.20268690586090088
aa(lp333
F1611228962.792611
aF0.29173803329467773
aF-0.3192863166332245
aF0.38817647099494934
aF-0.5396026968955994
aF0.5316958427429199
aF0.6204900145530701
aF0.2027822583913803
aa(lp334
F1611228962.802578
aF0.29158467054367065
aF-0.3192387819290161
aF0.38824987411499023
aF-0.540073573589325
aF0.5310964584350586
aF0.6206567287445068
aF0.20258940756320953
aa(lp335
F1611228962.812609
aF0.29161641001701355
aF-0.31939730048179626
aF0.3882266581058502
aF-0.53836590051651
aF0.5278783440589905
aF0.6253404021263123
aF0.2011370062828064
aa(lp336
F1611228962.822627
aF0.2915044128894806
aF-0.31937333941459656
aF0.388306587934494
aF-0.5382146835327148
aF0.5287951827049255
aF0.6247615814208984
aF0.20093180239200592
aa(lp337
F1611228962.823238
aF0.2914450466632843
aF-0.31935837864875793
aF0.3884626030921936
aF-0.5386345982551575
aF0.527638852596283
aF0.6253053545951843
aF0.20115485787391663
aa(lp338
F1611228962.832601
aF0.29137295484542847
aF-0.31932106614112854
aF0.3886057734489441
aF-0.5384414792060852
aF0.5276352763175964
aF0.6255647540092468
aF0.20087434351444244
aa(lp339
F1611228962.842624
aF0.2912690341472626
aF-0.3192608058452606
aF0.38875433802604675
aF-0.5374835729598999
aF0.5293316841125488
aF0.6250276565551758
aF0.20064835250377655
aa(lp340
F1611228962.862642
aF0.2911261320114136
aF-0.3190291225910187
aF0.38917359709739685
aF-0.5392677187919617
aF0.5320559740066528
aF0.6208473443984985
aF0.2016315907239914
aa(lp341
F1611228962.872603
aF0.2911471128463745
aF-0.31899020075798035
aF0.3892856240272522
aF-0.539180338382721
aF0.5316998958587646
aF0.6213597655296326
aF0.2012261599302292
aa(lp342
F1611228962.87319
aF0.2911759912967682
aF-0.3189411163330078
aF0.3894101083278656
aF-0.5392395853996277
aF0.5326384902000427
aF0.6203562617301941
aF0.20168060064315796
aa(lp343
F1611228962.882547
aF0.29123276472091675
aF-0.3189364969730377
aF0.3894925117492676
aF-0.5391842126846313
aF0.5322845578193665
aF0.6208290457725525
aF0.2013077437877655
aa(lp344
F1611228962.892643
aF0.29143109917640686
aF-0.3189564049243927
aF0.3896446228027344
aF-0.5379576086997986
aF0.5335051417350769
aF0.6202717423439026
aF0.20306876301765442
aa(lp345
F1611228962.902682
aF0.29153087735176086
aF-0.3189648389816284
aF0.38969308137893677
aF-0.5380328893661499
aF0.5334177613258362
aF0.6202890872955322
aF0.2030460685491562
aa(lp346
F1611228962.912607
aF0.29164090752601624
aF-0.3189485967159271
aF0.38966959714889526
aF-0.5379252433776855
aF0.5329856872558594
aF0.6208279728889465
aF0.20281854271888733
aa(lp347
F1611228962.922636
aF0.29170331358909607
aF-0.31893494725227356
aF0.38964587450027466
aF-0.5382570624351501
aF0.5331365466117859
aF0.6204009056091309
aF0.20284874737262726
aa(lp348
F1611228962.923241
aF0.29170161485671997
aF-0.3188715875148773
aF0.38960790634155273
aF-0.5399735569953918
aF0.5310958027839661
aF0.621167004108429
aF0.20128962397575378
aa(lp349
F1611228962.932582
aF0.2917768359184265
aF-0.3188748061656952
aF0.3895142674446106
aF-0.5399938225746155
aF0.5311821699142456
aF0.6210142970085144
aF0.2014780342578888
aa(lp350
F1611228962.94266
aF0.29184919595718384
aF-0.3188811242580414
aF0.3893742859363556
aF-0.5400139093399048
aF0.5305777788162231
aF0.6214068531990051
aF0.20180624723434448
aa(lp351
F1611228962.952632
aF0.2919739782810211
aF-0.3189433217048645
aF0.38918164372444153
aF-0.5386226773262024
aF0.53239506483078
aF0.6205345988273621
aF0.20341572165489197
aa(lp352
F1611228962.962671
aF0.29201945662498474
aF-0.3189881145954132
aF0.38895222544670105
aF-0.5390501022338867
aF0.5316605567932129
aF0.6207484006881714
aF0.2035519778728485
aa(lp353
F1611228962.972617
aF0.29201722145080566
aF-0.31898388266563416
aF0.38876229524612427
aF-0.5391282439231873
aF0.531886100769043
aF0.6203908324241638
aF0.20384615659713745
aa(lp354
F1611228962.97323
aF0.29204168915748596
aF-0.31905287504196167
aF0.3883974254131317
aF-0.5399284362792969
aF0.5274313688278198
aF0.6242855787277222
aF0.2013975977897644
aa(lp355
F1611228963.022627
aF0.29206350445747375
aF-0.31896910071372986
aF0.387600302696228
aF-0.5407426953315735
aF0.5297199487686157
aF0.6208717823028564
aF0.2037457376718521
aa(lp356
F1611228963.023239
aF0.29214778542518616
aF-0.31916937232017517
aF0.3874177634716034
aF-0.5388695597648621
aF0.5292807221412659
aF0.6235847473144531
aF0.2015528827905655
aa(lp357
F1611228963.032548
aF0.2921925485134125
aF-0.3191179633140564
aF0.3874974548816681
aF-0.5389624238014221
aF0.5287649631500244
aF0.6237867474555969
aF0.20203308761119843
aa(lp358
F1611228963.072591
aF0.29204660654067993
aF-0.3189353048801422
aF0.3877668082714081
aF-0.5394593477249146
aF0.527133584022522
aF0.6249555945396423
aF0.2013564109802246
aa(lp359
F1611228963.073167
aF0.29200097918510437
aF-0.31888487935066223
aF0.3878593444824219
aF-0.5388768911361694
aF0.5273044109344482
aF0.6253452301025391
aF0.20125915110111237
aa(lp360
F1611228963.08266
aF0.2919479012489319
aF-0.3188379406929016
aF0.3879343867301941
aF-0.5384180545806885
aF0.5273731350898743
aF0.6256576776504517
aF0.20133571326732635
aa(lp361
F1611228963.11262
aF0.29174283146858215
aF-0.31871816515922546
aF0.38802433013916016
aF-0.5389249324798584
aF0.527775764465332
aF0.624967634677887
aF0.2010675072669983
aa(lp362
F1611228963.122615
aF0.29170510172843933
aF-0.3186981976032257
aF0.3880111575126648
aF-0.5389788150787354
aF0.5278845429420471
aF0.6248200535774231
aF0.20109613239765167
aa(lp363
F1611228963.152595
aF0.29137715697288513
aF-0.3184325397014618
aF0.387876033782959
aF-0.5415561199188232
aF0.5303508639335632
aF0.6199429631233215
aF0.2027701586484909
aa(lp364
F1611228963.162567
aF0.29131072759628296
aF-0.3184061646461487
aF0.38780757784843445
aF-0.5415187478065491
aF0.5303194522857666
aF0.6199400424957275
aF0.20296059548854828
aa(lp365
F1611228963.172616
aF0.29121121764183044
aF-0.31837451457977295
aF0.38769257068634033
aF-0.5418065190315247
aF0.5298341512680054
aF0.6202278733253479
aF0.20258089900016785
aa(lp366
F1611228963.173184
aF0.2911016643047333
aF-0.3183313012123108
aF0.3875887393951416
aF-0.5420151948928833
aF0.5293822288513184
aF0.6203587055206299
aF0.20280307531356812
aa(lp367
F1611228963.182564
aF0.29089871048927307
aF-0.31829044222831726
aF0.38750410079956055
aF-0.541904628276825
aF0.5300872325897217
aF0.6196638345718384
aF0.20338085293769836
aa(lp368
F1611228963.192577
aF0.2907385528087616
aF-0.31824368238449097
aF0.38737526535987854
aF-0.5414775013923645
aF0.5318553447723389
aF0.6181563138961792
aF0.20448650419712067
aa(lp369
F1611228963.202601
aF0.29057595133781433
aF-0.3182276785373688
aF0.3872065246105194
aF-0.5415493845939636
aF0.5319075584411621
aF0.6180007457733154
aF0.2046307772397995
aa(lp370
F1611228963.212614
aF0.2904927432537079
aF-0.3183622658252716
aF0.3868541419506073
aF-0.5400898456573486
aF0.530814528465271
aF0.6205018758773804
aF0.20375557243824005
aa(lp371
F1611228963.222605
aF0.29019665718078613
aF-0.3181290030479431
aF0.38688361644744873
aF-0.5417372584342957
aF0.532188892364502
aF0.6174099445343018
aF0.20518453419208527
aa(lp372
F1611228963.223288
aF0.29006311297416687
aF-0.3180615305900574
aF0.3867611289024353
aF-0.5416730642318726
aF0.5320988893508911
aF0.6174712777137756
aF0.20540320873260498
aa(lp373
F1611228963.232615
aF0.28998640179634094
aF-0.31804755330085754
aF0.38666078448295593
aF-0.5416743755340576
aF0.5316731333732605
aF0.6177966594696045
aF0.20552363991737366
aa(lp374
F1611228963.242612
aF0.2899446189403534
aF-0.3180132508277893
aF0.3866353929042816
aF-0.5417250990867615
aF0.5319012403488159
aF0.617511510848999
aF0.2056562900543213
aa(lp375
F1611228963.252604
aF0.2899390459060669
aF-0.31798529624938965
aF0.3866364061832428
aF-0.5418853163719177
aF0.5316110253334045
aF0.617660403251648
aF0.2055378258228302
aa(lp376
F1611228963.262568
aF0.2899506688117981
aF-0.31795763969421387
aF0.38666510581970215
aF-0.5418194532394409
aF0.5321855545043945
aF0.6171596050262451
aF0.20572881400585175
aa(lp377
F1611228963.272622
aF0.2899545729160309
aF-0.31793472170829773
aF0.38668927550315857
aF-0.5417751669883728
aF0.5320129990577698
aF0.6174026727676392
aF0.20556193590164185
aa(lp378
F1611228963.273252
aF0.28995123505592346
aF-0.3179296851158142
aF0.38665571808815
aF-0.5413346886634827
aF0.5321445465087891
aF0.6178709864616394
aF0.20497390627861023
aa(lp379
F1611228963.2826
aF0.2899477779865265
aF-0.31789684295654297
aF0.3867756724357605
aF-0.5415171980857849
aF0.5319286584854126
aF0.6177321076393127
aF0.20547069609165192
aa(lp380
F1611228963.292619
aF0.28992846608161926
aF-0.31786099076271057
aF0.3868396282196045
aF-0.5415109395980835
aF0.532281219959259
aF0.6174363493919373
aF0.20546306669712067
aa(lp381
F1611228963.302665
aF0.2899110019207001
aF-0.31784695386886597
aF0.38686278462409973
aF-0.5413148999214172
aF0.5322751402854919
aF0.6175616383552551
aF0.2056184709072113
aa(lp382
F1611228963.3126
aF0.2898886501789093
aF-0.31783828139305115
aF0.38687318563461304
aF-0.5414297580718994
aF0.5325750112533569
aF0.6172339916229248
aF0.20552347600460052
aa(lp383
F1611228963.322613
aF0.28991931676864624
aF-0.31784605979919434
aF0.3868361711502075
aF-0.5413175821304321
aF0.5321562886238098
aF0.6177057027816772
aF0.20548628270626068
aa(lp384
F1611228963.323192
aF0.28994569182395935
aF-0.31784820556640625
aF0.38679221272468567
aF-0.5414971709251404
aF0.5321703553199768
aF0.6175369024276733
aF0.20548422634601593
aa(lp385
F1611228963.332589
aF0.2900009751319885
aF-0.317862331867218
aF0.38676023483276367
aF-0.5418024659156799
aF0.5322274565696716
aF0.6172213554382324
aF0.20547990500926971
aa(lp386
F1611228963.342571
aF0.2901992201805115
aF-0.31808504462242126
aF0.3865296244621277
aF-0.5401625633239746
aF0.5303584933280945
aF0.6207631230354309
aF0.2039547562599182
aa(lp387
F1611228963.352583
aF0.29022255539894104
aF-0.31790274381637573
aF0.38665950298309326
aF-0.5418283939361572
aF0.5321339964866638
aF0.6173450350761414
aF0.2052815705537796
aa(lp388
F1611228963.362605
aF0.29040417075157166
aF-0.3179536461830139
aF0.3866342306137085
aF-0.5416879653930664
aF0.5325916409492493
aF0.6169509291648865
aF0.20564980804920197
aa(lp389
F1611228963.372596
aF0.290533185005188
aF-0.3180071711540222
aF0.386656254529953
aF-0.5418033003807068
aF0.5321812629699707
aF0.6171728372573853
aF0.20574232935905457
aa(lp390
F1611228963.373254
aF0.29064634442329407
aF-0.3180414140224457
aF0.38666948676109314
aF-0.5419358611106873
aF0.5319502949714661
aF0.6174335479736328
aF0.20520775020122528
aa(lp391
F1611228963.38262
aF0.29074522852897644
aF-0.3180712163448334
aF0.38667047023773193
aF-0.5418888330459595
aF0.5314385294914246
aF0.618005633354187
aF0.20493561029434204
aa(lp392
F1611228963.392619
aF0.29080840945243835
aF-0.31810078024864197
aF0.38665688037872314
aF-0.541849672794342
aF0.5314456224441528
aF0.6181100606918335
aF0.20470592379570007
aa(lp393
F1611228963.402594
aF0.29083365201950073
aF-0.31812480092048645
aF0.38663679361343384
aF-0.541687548160553
aF0.5313685536384583
aF0.6182794570922852
aF0.20482337474822998
aa(lp394
F1611228963.412579
aF0.2908276915550232
aF-0.3181408643722534
aF0.38660308718681335
aF-0.5417048335075378
aF0.5314618945121765
aF0.6181536912918091
aF0.2049151360988617
aa(lp395
F1611228963.422565
aF0.2907944321632385
aF-0.3181398808956146
aF0.3865240514278412
aF-0.5416434407234192
aF0.531438946723938
aF0.618302047252655
aF0.20468910038471222
aa(lp396
F1611228963.423174
aF0.29082047939300537
aF-0.3182104825973511
aF0.386386901140213
aF-0.5411320924758911
aF0.5317692160606384
aF0.6184613704681396
aF0.20470240712165833
aa(lp397
F1611228963.432591
aF0.29082736372947693
aF-0.3182287812232971
aF0.38630059361457825
aF-0.5412053465843201
aF0.5315753221511841
aF0.6184862852096558
aF0.20493684709072113
aa(lp398
F1611228963.442604
aF0.2908329665660858
aF-0.31824225187301636
aF0.38624346256256104
aF-0.541434645652771
aF0.5314556956291199
aF0.6183891892433167
aF0.2049347162246704
aa(lp399
F1611228963.452578
aF0.2908604145050049
aF-0.31826284527778625
aF0.3862158954143524
aF-0.5413962602615356
aF0.5315585136413574
aF0.6182706356048584
aF0.20512741804122925
aa(lp400
F1611228963.46257
aF0.29092323780059814
aF-0.3182907700538635
aF0.3861626982688904
aF-0.5413965582847595
aF0.531346321105957
aF0.6185128688812256
aF0.2049458920955658
aa(lp401
F1611228963.472628
aF0.29102128744125366
aF-0.3184838593006134
aF0.3859512209892273
aF-0.5439473390579224
aF0.5281496047973633
aF0.618687629699707
aF0.20592471957206726
aa(lp402
F1611228963.473235
aF0.2911016047000885
aF-0.3184944689273834
aF0.3859022855758667
aF-0.544170081615448
aF0.5280615091323853
aF0.6186182498931885
aF0.2057703286409378
aa(lp403
F1611228963.482589
aF0.2912357747554779
aF-0.31850937008857727
aF0.3858281970024109
aF-0.5437138676643372
aF0.5281399488449097
aF0.6189207434654236
aF0.2058655321598053
aa(lp404
F1611228963.492598
aF0.29134994745254517
aF-0.3185224235057831
aF0.38577109575271606
aF-0.5436604022979736
aF0.5276470184326172
aF0.61934894323349
aF0.20598293840885162
aa(lp405
F1611228963.5026
aF0.2914237976074219
aF-0.3185291886329651
aF0.3857671618461609
aF-0.5434871315956116
aF0.5275635719299316
aF0.6196200251579285
aF0.2058386355638504
aa(lp406
F1611228963.512636
aF0.29149723052978516
aF-0.3185271918773651
aF0.38577935099601746
aF-0.5431657433509827
aF0.527441143989563
aF0.6199728846549988
aF0.20593811571598053
aa(lp407
F1611228963.522579
aF0.2915331721305847
aF-0.318507581949234
aF0.38584813475608826
aF-0.5431763529777527
aF0.5275825262069702
aF0.6198790073394775
aF0.20583035051822662
aa(lp408
F1611228963.523216
aF0.29155027866363525
aF-0.3184851408004761
aF0.3859194219112396
aF-0.543037474155426
aF0.5278769731521606
aF0.619799792766571
aF0.20568057894706726
aa(lp409
F1611228963.532519
aF0.2915724813938141
aF-0.3184773027896881
aF0.3859572112560272
aF-0.5429607629776001
aF0.5277596712112427
aF0.6201054453849792
aF0.20526263117790222
aa(lp410
F1611228963.542555
aF0.2916046977043152
aF-0.31845539808273315
aF0.38600799441337585
aF-0.5427294969558716
aF0.5276058912277222
aF0.6204184293746948
aF0.20532365143299103
aa(lp411
F1611228963.552575
aF0.29154056310653687
aF-0.31826528906822205
aF0.38618993759155273
aF-0.5406339764595032
aF0.5306748151779175
aF0.6199567914009094
aF0.20433485507965088
aa(lp412
F1611228963.562534
aF0.291498064994812
aF-0.31823819875717163
aF0.3862009644508362
aF-0.5406112670898438
aF0.5310208201408386
aF0.6195875406265259
aF0.20461606979370117
aa(lp413
F1611228963.572584
aF0.2914263904094696
aF-0.31822916865348816
aF0.3861928880214691
aF-0.5406479239463806
aF0.5313394069671631
aF0.6192365884780884
aF0.2047543078660965
aa(lp414
F1611228963.57316
aF0.29137474298477173
aF-0.3182031810283661
aF0.38618072867393494
aF-0.5405572652816772
aF0.5309321284294128
aF0.6197296977043152
aF0.20455816388130188
aa(lp415
F1611228963.582562
aF0.29132357239723206
aF-0.31818899512290955
aF0.38618627190589905
aF-0.5404970049858093
aF0.5310712456703186
aF0.619690477848053
aF0.20447535812854767
aa(lp416
F1611228963.592552
aF0.29132699966430664
aF-0.3181546628475189
aF0.38624289631843567
aF-0.5403827428817749
aF0.5314133167266846
aF0.6194003820419312
aF0.20476721227169037
aa(lp417
F1611228963.602639
aF0.291323721408844
aF-0.3181259334087372
aF0.3862919211387634
aF-0.5402951836585999
aF0.5312408208847046
aF0.6196024417877197
aF0.20483437180519104
aa(lp418
F1611228963.612567
aF0.2912955582141876
aF-0.31807467341423035
aF0.3863790035247803
aF-0.5408124327659607
aF0.5311073064804077
aF0.619321346282959
aF0.20466582477092743
aa(lp419
F1611228963.622572
aF0.29128187894821167
aF-0.31806501746177673
aF0.38642776012420654
aF-0.5407330393791199
aF0.5308980941772461
aF0.6197090744972229
aF0.20424425601959229
aa(lp420
F1611228963.623189
aF0.2912525236606598
aF-0.31804752349853516
aF0.3864839971065521
aF-0.5406518578529358
aF0.5310406684875488
aF0.6196119785308838
aF0.20438316464424133
aa(lp421
F1611228963.632637
aF0.2911686301231384
aF-0.3180066645145416
aF0.3865222930908203
aF-0.5406500697135925
aF0.5314158201217651
aF0.6192934513092041
aF0.20437796413898468
aa(lp422
F1611228963.642553
aF0.29107996821403503
aF-0.3179953098297119
aF0.38650617003440857
aF-0.5406380891799927
aF0.5316901206970215
aF0.6190621852874756
aF0.20439670979976654
aa(lp423
F1611228963.652553
aF0.29101550579071045
aF-0.31796783208847046
aF0.38650351762771606
aF-0.5406515598297119
aF0.5314875841140747
aF0.6193031668663025
aF0.20415827631950378
aa(lp424
F1611228963.662662
aF0.2909603416919708
aF-0.3179490566253662
aF0.3865170180797577
aF-0.540696918964386
aF0.531524658203125
aF0.6191189289093018
aF0.20449970662593842
aa(lp425
F1611228963.672642
aF0.29086166620254517
aF-0.3179331123828888
aF0.3864862024784088
aF-0.540435254573822
aF0.5317888855934143
aF0.6190168857574463
aF0.20481348037719727
aa(lp426
F1611228963.673228
aF0.2907869517803192
aF-0.3179117441177368
aF0.3864388167858124
aF-0.540537416934967
aF0.5321694612503052
aF0.6186675429344177
aF0.20461039245128632
aa(lp427
F1611228963.682621
aF0.2907447814941406
aF-0.31791257858276367
aF0.38638734817504883
aF-0.5408660769462585
aF0.5323601365089417
aF0.6181827783584595
aF0.20471146702766418
aa(lp428
F1611228963.692604
aF0.29082632064819336
aF-0.31800636649131775
aF0.3862684369087219
aF-0.5393378138542175
aF0.5339520573616028
aF0.6176691055297852
aF0.20614273846149445
aa(lp429
F1611228963.702643
aF0.29080867767333984
aF-0.3180215358734131
aF0.38616809248924255
aF-0.5395488142967224
aF0.5335654616355896
aF0.6177268028259277
aF0.20641855895519257
aa(lp430
F1611228963.71259
aF0.29067668318748474
aF-0.31798216700553894
aF0.3860490620136261
aF-0.5411341190338135
aF0.5318822264671326
aF0.6184043288230896
aF0.20457600057125092
aa(lp431
F1611228963.722681
aF0.29073840379714966
aF-0.3181140720844269
aF0.38593146204948425
aF-0.5393166542053223
aF0.5338910222053528
aF0.617774486541748
aF0.20604045689105988
aa(lp432
F1611228963.723205
aF0.2906195819377899
aF-0.318063348531723
aF0.3859032988548279
aF-0.5407066941261292
aF0.5321133136749268
aF0.618520975112915
aF0.20475248992443085
aa(lp433
F1611228963.73258
aF0.29058629274368286
aF-0.3180736303329468
aF0.3858889937400818
aF-0.5406774282455444
aF0.5320049524307251
aF0.6186231374740601
aF0.2048027515411377
aa(lp434
F1611228963.742622
aF0.2906152307987213
aF-0.31814518570899963
aF0.38588353991508484
aF-0.5388842821121216
aF0.5338481664657593
aF0.618063747882843
aF0.20641487836837769
aa(lp435
F1611228963.752667
aF0.29048943519592285
aF-0.31809675693511963
aF0.3859499394893646
aF-0.5405292510986328
aF0.5319966673851013
aF0.6186396479606628
aF0.20516492426395416
aa(lp436
F1611228963.762627
aF0.29051968455314636
aF-0.3181725740432739
aF0.3859785497188568
aF-0.5388789176940918
aF0.5342850089073181
aF0.6175611615180969
aF0.20680277049541473
aa(lp437
F1611228963.772552
aF0.29042625427246094
aF-0.3181506097316742
aF0.38599637150764465
aF-0.5403239727020264
aF0.5324335694313049
aF0.6184357404708862
aF0.20518697798252106
aa(lp438
F1611228963.773198
aF0.2903951108455658
aF-0.3181735873222351
aF0.386034220457077
aF-0.5403383374214172
aF0.5326166152954102
aF0.6182562708854675
aF0.2052154839038849
aa(lp439
F1611228963.782619
aF0.2903870642185211
aF-0.3182072937488556
aF0.3860625922679901
aF-0.540321946144104
aF0.5327030420303345
aF0.6182354688644409
aF0.20509667694568634
aa(lp440
F1611228963.79257
aF0.29038557410240173
aF-0.31824859976768494
aF0.38610899448394775
aF-0.5403434038162231
aF0.5329152941703796
aF0.6180935502052307
aF0.20491641759872437
aa(lp441
F1611228963.802577
aF0.2904219925403595
aF-0.31828808784484863
aF0.3861585855484009
aF-0.5403648614883423
aF0.532916247844696
aF0.6181497573852539
aF0.2046876847743988
aa(lp442
F1611228963.812618
aF0.29044896364212036
aF-0.3183239996433258
aF0.38621190190315247
aF-0.5403146147727966
aF0.5329686999320984
aF0.6182588934898376
aF0.20435407757759094
aa(lp443
F1611228963.82263
aF0.2905115485191345
aF-0.3184170722961426
aF0.3862927258014679
aF-0.5408855676651001
aF0.5332078337669373
aF0.6174166798591614
aF0.20476524531841278
aa(lp444
F1611228963.823178
aF0.2905671000480652
aF-0.31843510270118713
aF0.3864329159259796
aF-0.5411330461502075
aF0.532832145690918
aF0.617383599281311
aF0.20518900454044342
aa(lp445
F1611228963.832604
aF0.29062196612358093
aF-0.3184703588485718
aF0.3864714503288269
aF-0.540989339351654
aF0.5328688025474548
aF0.6175034642219543
aF0.20511172711849213
aa(lp446
F1611228963.842627
aF0.2906850278377533
aF-0.31851404905319214
aF0.3864837884902954
aF-0.5409276485443115
aF0.5326550006866455
aF0.617806077003479
aF0.2049185186624527
aa(lp447
F1611228963.852633
aF0.29075509309768677
aF-0.3185473382472992
aF0.38647937774658203
aF-0.5406011343002319
aF0.5319964289665222
aF0.6187595129013062
aF0.20461402833461761
aa(lp448
F1611228963.862588
aF0.2907913327217102
aF-0.3185884654521942
aF0.3864946961402893
aF-0.5405771732330322
aF0.5318654775619507
aF0.6188806891441345
aF0.20465104281902313
aa(lp449
F1611228963.872617
aF0.2908155620098114
aF-0.3186301290988922
aF0.3865170478820801
aF-0.5406656861305237
aF0.5322148203849792
aF0.6185079216957092
aF0.2046363800764084
aa(lp450
F1611228963.873233
aF0.2909165620803833
aF-0.31885993480682373
aF0.3863550126552582
aF-0.5429990887641907
aF0.5286695957183838
aF0.6192468404769897
aF0.20541131496429443
aa(lp451
F1611228963.88263
aF0.29096314311027527
aF-0.3189093768596649
aF0.38637393712997437
aF-0.5427441000938416
aF0.5287107229232788
aF0.6194635629653931
aF0.20532603561878204
aa(lp452
F1611228963.892541
aF0.29104864597320557
aF-0.3189804255962372
aF0.3863477110862732
aF-0.5430448651313782
aF0.5279319286346436
aF0.6198943853378296
aF0.20523430407047272
aa(lp453
F1611228963.902614
aF0.2911182641983032
aF-0.3190532326698303
aF0.3863513767719269
aF-0.543182373046875
aF0.5276007652282715
aF0.6201143860816956
aF0.2050573080778122
aa(lp454
F1611228963.912676
aF0.2911752164363861
aF-0.3191198706626892
aF0.3863673806190491
aF-0.5433436036109924
aF0.5280402898788452
aF0.6195955872535706
aF0.2050669938325882
aa(lp455
F1611228963.922626
aF0.291284441947937
aF-0.3191814422607422
aF0.38640260696411133
aF-0.5429354310035706
aF0.5275580286979675
aF0.6203336119651794
aF0.20515823364257812
aa(lp456
F1611228963.923345
aF0.29133036732673645
aF-0.31925514340400696
aF0.3864598274230957
aF-0.542661726474762
aF0.5275883078575134
aF0.6205687522888184
aF0.20509326457977295
aa(lp457
F1611228963.932568
aF0.29139548540115356
aF-0.3193116784095764
aF0.3864762485027313
aF-0.5428991317749023
aF0.5276365280151367
aF0.6204603910446167
aF0.20466870069503784
aa(lp458
F1611228963.942644
aF0.2914629280567169
aF-0.31938108801841736
aF0.38650062680244446
aF-0.5428385734558105
aF0.5273246169090271
aF0.6208323836326599
aF0.20450462400913239
aa(lp459
F1611228963.952667
aF0.29154691100120544
aF-0.319460391998291
aF0.38649263978004456
aF-0.5429031848907471
aF0.5278604030609131
aF0.6201902031898499
aF0.20489893853664398
aa(lp460
F1611228963.962621
aF0.29177865386009216
aF-0.319592148065567
aF0.38623738288879395
aF-0.5421430468559265
aF0.5239168405532837
aF0.6242091059684753
aF0.20482969284057617
aa(lp461
F1611228963.972629
aF0.29167553782463074
aF-0.31958726048469543
aF0.38649794459342957
aF-0.5430375337600708
aF0.5276318788528442
aF0.6201727986335754
aF0.2051842361688614
aa(lp462
F1611228963.973269
aF0.2917088270187378
aF-0.3196219205856323
aF0.3865169286727905
aF-0.5430703163146973
aF0.52777099609375
aF0.6200195550918579
aF0.20520269870758057
aa(lp463
F1611228963.982586
aF0.29173800349235535
aF-0.3196585178375244
aF0.38656696677207947
aF-0.5428097248077393
aF0.5280333161354065
aF0.6200499534606934
aF0.20512546598911285
aa(lp464
F1611228963.992631
aF0.2917453646659851
aF-0.31969165802001953
aF0.3866504430770874
aF-0.5431084036827087
aF0.528209924697876
aF0.6196810603141785
aF0.2049952894449234
aa(lp465
F1611228964.002621
aF0.29190364480018616
aF-0.3197718858718872
aF0.3863964080810547
aF-0.5423025488853455
aF0.5241377949714661
aF0.6239853501319885
aF0.20452357828617096
aa(lp466
F1611228964.012607
aF0.2919119596481323
aF-0.3197864890098572
aF0.38641929626464844
aF-0.5421494841575623
aF0.5240989923477173
aF0.6241322159767151
aF0.2045804262161255
aa(lp467
F1611228964.022645
aF0.29189109802246094
aF-0.319805383682251
aF0.38641148805618286
aF-0.5421529412269592
aF0.5241789817810059
aF0.6240876317024231
aF0.2045023888349533
aa(lp468
F1611228964.023244
aF0.2918766438961029
aF-0.31979477405548096
aF0.3863789439201355
aF-0.5422565937042236
aF0.5239105820655823
aF0.62420654296875
aF0.20455238223075867
aa(lp469
F1611228964.032631
aF0.2918340563774109
aF-0.3197871148586273
aF0.3863401412963867
aF-0.5424729585647583
aF0.5239152312278748
aF0.6239472031593323
aF0.20475824177265167
aa(lp470
F1611228964.042631
aF0.29176461696624756
aF-0.3198024034500122
aF0.3863147497177124
aF-0.5423606634140015
aF0.5243450403213501
aF0.6237808465957642
aF0.20446203649044037
aa(lp471
F1611228964.052617
aF0.29169583320617676
aF-0.3197896182537079
aF0.3863082528114319
aF-0.5424519777297974
aF0.5246992111206055
aF0.6233375668525696
aF0.20466271042823792
aa(lp472
F1611228964.062676
aF0.29165250062942505
aF-0.3197672367095947
aF0.3862708806991577
aF-0.5426076650619507
aF0.5243263840675354
aF0.6234444975852966
aF0.20487956702709198
aa(lp473
F1611228964.072616
aF0.2915777564048767
aF-0.3197401762008667
aF0.38627877831459045
aF-0.5425567030906677
aF0.5247989892959595
aF0.6230632066726685
aF0.2049647718667984
aa(lp474
F1611228964.07314
aF0.2915022075176239
aF-0.3197072148323059
aF0.3862477242946625
aF-0.5423113107681274
aF0.5239470601081848
aF0.6241099834442139
aF0.20460866391658783
aa(lp475
F1611228964.08267
aF0.2913988530635834
aF-0.3196641504764557
aF0.3862537145614624
aF-0.5425140261650085
aF0.5243168473243713
aF0.6235644817352295
aF0.2047869861125946
aa(lp476
F1611228964.092648
aF0.29117345809936523
aF-0.3195437490940094
aF0.3865014612674713
aF-0.5435230135917664
aF0.5279420018196106
aF0.6194188594818115
aF0.20537830889225006
aa(lp477
F1611228964.102605
aF0.2910185158252716
aF-0.319472074508667
aF0.38649994134902954
aF-0.5437365174293518
aF0.5276937484741211
aF0.619514524936676
aF0.2051623910665512
aa(lp478
F1611228964.112559
aF0.2909330129623413
aF-0.31940746307373047
aF0.38644737005233765
aF-0.5437103509902954
aF0.5276587605476379
aF0.619591236114502
aF0.20509037375450134
aa(lp479
F1611228964.122652
aF0.2908359467983246
aF-0.3193358778953552
aF0.3864539563655853
aF-0.5437026619911194
aF0.5279917120933533
aF0.6192283630371094
aF0.20534966886043549
aa(lp480
F1611228964.123263
aF0.2907271087169647
aF-0.31926363706588745
aF0.3864594101905823
aF-0.5437722206115723
aF0.5280753970146179
aF0.6190857887268066
aF0.2053801268339157
aa(lp481
F1611228964.13262
aF0.2906167209148407
aF-0.31917762756347656
aF0.38651806116104126
aF-0.5436733961105347
aF0.5286563634872437
aF0.6185223460197449
aF0.20584431290626526
aa(lp482
F1611228964.142654
aF0.29049068689346313
aF-0.3190826177597046
aF0.3865859806537628
aF-0.543683648109436
aF0.5293765664100647
aF0.6178533434867859
aF0.2059755176305771
aa(lp483
F1611228964.152642
aF0.2904432415962219
aF-0.3190408945083618
aF0.38662829995155334
aF-0.5418962836265564
aF0.5316817760467529
aF0.6169542670249939
aF0.20743754506111145
aa(lp484
F1611228964.162643
aF0.29030129313468933
aF-0.3187403976917267
aF0.38681620359420776
aF-0.5391125082969666
aF0.5346336364746094
aF0.6171101927757263
aF0.2066388875246048
aa(lp485
F1611228964.172616
aF0.2901284396648407
aF-0.3186347186565399
aF0.3868184983730316
aF-0.5388754606246948
aF0.5342926383018494
aF0.6176654100418091
aF0.2064802497625351
aa(lp486
F1611228964.173262
aF0.2899165153503418
aF-0.31844469904899597
aF0.3868589699268341
aF-0.5407546162605286
aF0.531948983669281
aF0.6184707283973694
aF0.20520439743995667
aa(lp487
F1611228964.182708
aF0.28977125883102417
aF-0.3183351159095764
aF0.3868181109428406
aF-0.5403745770454407
aF0.5321258902549744
aF0.6186772584915161
aF0.20512418448925018
aa(lp488
F1611228964.192641
aF0.2896326184272766
aF-0.3182579278945923
aF0.38674023747444153
aF-0.5398452281951904
aF0.5324861407279968
aF0.6189296841621399
aF0.20482124388217926
aa(lp489
F1611228964.202608
aF0.2894972860813141
aF-0.3181796073913574
aF0.38674697279930115
aF-0.5395314693450928
aF0.5327184200286865
aF0.6188423037528992
aF0.20530757308006287
aa(lp490
F1611228964.212698
aF0.28938671946525574
aF-0.3180984854698181
aF0.3867674171924591
aF-0.5391553640365601
aF0.53339022397995
aF0.6184678673744202
aF0.20567910373210907
aa(lp491
F1611228964.2226
aF0.2893262803554535
aF-0.3180401623249054
aF0.38681134581565857
aF-0.539455771446228
aF0.533393383026123
aF0.6182202100753784
aF0.20562811195850372
aa(lp492
F1611228964.223185
aF0.28926652669906616
aF-0.3179953098297119
aF0.38682863116264343
aF-0.5394750237464905
aF0.533402681350708
aF0.6182306408882141
aF0.20552165806293488
aa(lp493
F1611228964.232617
aF0.2892216444015503
aF-0.31794679164886475
aF0.3868550658226013
aF-0.5395779609680176
aF0.533527672290802
aF0.6180415153503418
aF0.2054961919784546
aa(lp494
F1611228964.242587
aF0.2891835570335388
aF-0.3179022967815399
aF0.3868248462677002
aF-0.5396124720573425
aF0.533463716506958
aF0.6181317567825317
aF0.20529977977275848
aa(lp495
F1611228964.252664
aF0.2891729474067688
aF-0.3178844451904297
aF0.38678866624832153
aF-0.5396040081977844
aF0.5331663489341736
aF0.6183739304542542
aF0.20536528527736664
aa(lp496
F1611228964.262624
aF0.28912684321403503
aF-0.3178408443927765
aF0.3867436945438385
aF-0.5397036671638489
aF0.533366858959198
aF0.6180158853530884
aF0.20566056668758392
aa(lp497
F1611228964.272619
aF0.2891214191913605
aF-0.31782543659210205
aF0.3866989016532898
aF-0.5398509502410889
aF0.5331901907920837
aF0.6179723143577576
aF0.20586252212524414
aa(lp498
F1611228964.273222
aF0.2890986204147339
aF-0.31780877709388733
aF0.38666656613349915
aF-0.539924681186676
aF0.5331193208694458
aF0.6180299520492554
aF0.2056800127029419
aa(lp499
F1611228964.282612
aF0.2891062796115875
aF-0.31781312823295593
aF0.3866408169269562
aF-0.5398045778274536
aF0.5326237082481384
aF0.6185691952705383
aF0.20565785467624664
aa(lp500
F1611228964.292577
aF0.2890838086605072
aF-0.3178131580352783
aF0.3866265118122101
aF-0.5397078394889832
aF0.5326663851737976
aF0.6185230016708374
aF0.2059398591518402
aa(lp501
F1611228964.302535
aF0.28907808661460876
aF-0.31780752539634705
aF0.38661012053489685
aF-0.5397559404373169
aF0.5328419804573059
aF0.6183242201805115
aF0.20595648884773254
aa(lp502
F1611228964.312556
aF0.2890760600566864
aF-0.317823588848114
aF0.38659346103668213
aF-0.5397244095802307
aF0.5330744385719299
aF0.6180722117424011
aF0.20619437098503113
aa(lp503
F1611228964.322609
aF0.28909847140312195
aF-0.31784787774086
aF0.3865553140640259
aF-0.539763867855072
aF0.53284752368927
aF0.618256151676178
aF0.20612584054470062
aa(lp504
F1611228964.323232
aF0.28911760449409485
aF-0.3178582787513733
aF0.38652104139328003
aF-0.5398629307746887
aF0.5328174829483032
aF0.6181864738464355
aF0.20615297555923462
aa(lp505
F1611228964.332584
aF0.2891905605792999
aF-0.31790170073509216
aF0.3864680528640747
aF-0.5398311614990234
aF0.5326394438743591
aF0.6183345913887024
aF0.20625215768814087
aa(lp506
F1611228964.342565
aF0.2892366647720337
aF-0.3179168403148651
aF0.386441171169281
aF-0.5399546027183533
aF0.5328477621078491
aF0.618057906627655
aF0.20622038841247559
aa(lp507
F1611228964.352625
aF0.28932809829711914
aF-0.31795641779899597
aF0.38643452525138855
aF-0.5398837327957153
aF0.5328166484832764
aF0.6181514859199524
aF0.2062058001756668
aa(lp508
F1611228964.362584
aF0.2894192337989807
aF-0.31799447536468506
aF0.38644540309906006
aF-0.5398359894752502
aF0.5330257415771484
aF0.6180371642112732
aF0.2061329036951065
aa(lp509
F1611228964.372652
aF0.2895622253417969
aF-0.3180510997772217
aF0.3864341974258423
aF-0.5401575565338135
aF0.5328343510627747
aF0.6180031895637512
aF0.2058870494365692
aa(lp510
F1611228964.373249
aF0.2896879315376282
aF-0.3180985450744629
aF0.38640540838241577
aF-0.5401408076286316
aF0.5325053334236145
aF0.6183855533599854
aF0.2056339681148529
aa(lp511
F1611228964.382581
aF0.28980764746665955
aF-0.31814926862716675
aF0.38638177514076233
aF-0.5404599905014038
aF0.5324301719665527
aF0.618231475353241
aF0.20545335114002228
aa(lp512
F1611228964.39259
aF0.28993481397628784
aF-0.31822916865348816
aF0.38632404804229736
aF-0.5399906039237976
aF0.5329318046569824
aF0.6182114481925964
aF0.20544707775115967
aa(lp513
F1611228964.402607
aF0.2900537848472595
aF-0.3182651996612549
aF0.3862888813018799
aF-0.5400853753089905
aF0.532921314239502
aF0.6181181073188782
aF0.20550590753555298
aa(lp514
F1611228964.412606
aF0.29016146063804626
aF-0.31829938292503357
aF0.3862605094909668
aF-0.5401906967163086
aF0.5334330201148987
aF0.6175400018692017
aF0.20563960075378418
aa(lp515
F1611228964.422595
aF0.29029420018196106
aF-0.31835147738456726
aF0.3862372934818268
aF-0.540229856967926
aF0.5337746143341064
aF0.6171908378601074
aF0.20569872856140137
aa(lp516
F1611228964.423186
aF0.2903956174850464
aF-0.3183761239051819
aF0.3861994743347168
aF-0.5401891469955444
aF0.5335251092910767
aF0.617497444152832
aF0.20553220808506012
aa(lp517
F1611228964.432629
aF0.2904646694660187
aF-0.3183785676956177
aF0.3861626088619232
aF-0.5400219559669495
aF0.5331655740737915
aF0.6181624531745911
aF0.2049044966697693
aa(lp518
F1611228964.442576
aF0.29053932428359985
aF-0.3184252679347992
aF0.3861311376094818
aF-0.5405473113059998
aF0.5329175591468811
aF0.6179373264312744
aF0.20484420657157898
aa(lp519
F1611228964.452625
aF0.2906264662742615
aF-0.3186078369617462
aF0.38589683175086975
aF-0.5431602597236633
aF0.5293943285942078
aF0.6182575821876526
aF0.20609743893146515
aa(lp520
F1611228964.462634
aF0.29064494371414185
aF-0.3185925781726837
aF0.38580048084259033
aF-0.5431199669837952
aF0.529508113861084
aF0.6182749271392822
aF0.20585939288139343
aa(lp521
F1611228964.472605
aF0.2907213568687439
aF-0.31865695118904114
aF0.385684996843338
aF-0.5415564179420471
aF0.5311315655708313
aF0.6176332831382751
aF0.20771415531635284
aa(lp522
F1611228964.473149
aF0.29072025418281555
aF-0.3186670243740082
aF0.38551315665245056
aF-0.5416576862335205
aF0.5308893918991089
aF0.6177250146865845
aF0.207796111702919
aa(lp523
F1611228964.482625
aF0.29063042998313904
aF-0.3185970187187195
aF0.3853914141654968
aF-0.5433034300804138
aF0.5289877653121948
aF0.6182785034179688
aF0.20670047402381897
aa(lp524
F1611228964.492626
aF0.2906727194786072
aF-0.3186620771884918
aF0.3852577805519104
aF-0.5417903065681458
aF0.5308151841163635
aF0.6174921989440918
aF0.2083314210176468
aa(lp525
F1611228964.502584
aF0.29063236713409424
aF-0.3186522126197815
aF0.3851674199104309
aF-0.5415322184562683
aF0.5309832096099854
aF0.6174096465110779
aF0.20881837606430054
aa(lp526
F1611228964.512618
aF0.2906031012535095
aF-0.3186491131782532
aF0.385083943605423
aF-0.541488766670227
aF0.5309529900550842
aF0.6173940300941467
aF0.20905372500419617
aa(lp527
F1611228964.522581
aF0.2905859649181366
aF-0.31863564252853394
aF0.38502028584480286
aF-0.5413722991943359
aF0.5309070944786072
aF0.6175196170806885
aF0.20910115540027618
aa(lp528
F1611228964.523167
aF0.29058653116226196
aF-0.318625271320343
aF0.38497933745384216
aF-0.5412728786468506
aF0.5309015512466431
aF0.6175697445869446
aF0.20922459661960602
aa(lp529
F1611228964.532648
aF0.2905833423137665
aF-0.31862354278564453
aF0.38493964076042175
aF-0.541143000125885
aF0.5305939316749573
aF0.6179544925689697
aF0.20920465886592865
aa(lp530
F1611228964.54257
aF0.29056331515312195
aF-0.31859099864959717
aF0.384890079498291
aF-0.5412704944610596
aF0.5312046408653259
aF0.6172472238540649
aF0.20941294729709625
aa(lp531
F1611228964.552588
aF0.29050499200820923
aF-0.3185848295688629
aF0.38480016589164734
aF-0.5412184000015259
aF0.5305842757225037
aF0.6179165244102478
aF0.20914636552333832
aa(lp532
F1611228964.562613
aF0.2904721200466156
aF-0.3185485303401947
aF0.38476499915122986
aF-0.5409609079360962
aF0.5300033092498779
aF0.6186310648918152
aF0.2091732919216156
aa(lp533
F1611228964.572608
aF0.29039478302001953
aF-0.3185230791568756
aF0.3847579061985016
aF-0.5411173701286316
aF0.5300138592720032
aF0.6184087991714478
aF0.20939908921718597
aa(lp534
F1611228964.57318
aF0.2903133034706116
aF-0.3184719681739807
aF0.38474106788635254
aF-0.5412498116493225
aF0.530222475528717
aF0.6179784536361694
aF0.20979879796504974
aa(lp535
F1611228964.58257
aF0.29020702838897705
aF-0.3183850944042206
aF0.3847526013851166
aF-0.5406129956245422
aF0.5313653349876404
aF0.6173827052116394
aF0.21030235290527344
aa(lp536
F1611228964.592662
aF0.29013675451278687
aF-0.31833574175834656
aF0.3847719132900238
aF-0.5406937003135681
aF0.5318190455436707
aF0.616840660572052
aF0.2105383276939392
aa(lp537
F1611228964.602587
aF0.2900732755661011
aF-0.31828877329826355
aF0.3847843110561371
aF-0.5404437184333801
aF0.5314213037490845
aF0.6174660921096802
aF0.21035148203372955
aa(lp538
F1611228964.61262
aF0.2899785041809082
aF-0.31822413206100464
aF0.3848420977592468
aF-0.5403999090194702
aF0.5321001410484314
aF0.6168913245201111
aF0.21043424308300018
aa(lp539
F1611228964.622622
aF0.28990438580513
aF-0.31816959381103516
aF0.38488414883613586
aF-0.540677011013031
aF0.5323502421379089
aF0.6163899302482605
aF0.21055899560451508
aa(lp540
F1611228964.623159
aF0.2897460162639618
aF-0.3180195689201355
aF0.3849388659000397
aF-0.5420442223548889
aF0.5306562781333923
aF0.6172902584075928
aF0.2086738646030426
aa(lp541
F1611228964.632568
aF0.28978946805000305
aF-0.31806907057762146
aF0.38493382930755615
aF-0.5402547121047974
aF0.5323575139045715
aF0.6168922185897827
aF0.21015305817127228
aa(lp542
F1611228964.642674
aF0.28976455330848694
aF-0.3180450201034546
aF0.3849576413631439
aF-0.5401662588119507
aF0.5320611000061035
aF0.617263913154602
aF0.2100399136543274
aa(lp543
F1611228964.652604
aF0.2897365391254425
aF-0.3180137872695923
aF0.38497743010520935
aF-0.53995680809021
aF0.5321545600891113
aF0.617368757724762
aF0.21003340184688568
aa(lp544
F1611228964.662612
aF0.2896434962749481
aF-0.3179226219654083
aF0.3850151002407074
aF-0.5416967272758484
aF0.5307198166847229
aF0.6175025105476379
aF0.20878635346889496
aa(lp545
F1611228964.672609
aF0.289654016494751
aF-0.3179265558719635
aF0.3850271999835968
aF-0.5417405962944031
aF0.5304469466209412
aF0.6177646517753601
aF0.2085905373096466
aa(lp546
F1611228964.673197
aF0.28967371582984924
aF-0.3179377615451813
aF0.38504543900489807
aF-0.541811466217041
aF0.530606746673584
aF0.617592990398407
aF0.20850826799869537
aa(lp547
F1611228964.68257
aF0.28978431224823
aF-0.31801706552505493
aF0.38502511382102966
aF-0.5403172373771667
aF0.5322060585021973
aF0.6170539855957031
aF0.20990104973316193
aa(lp548
F1611228964.692598
aF0.2897426187992096
aF-0.31797996163368225
aF0.3850511610507965
aF-0.5419694185256958
aF0.5304849743843079
aF0.6175777316093445
aF0.20845277607440948
aa(lp549
F1611228964.703189
aF0.28984513878822327
aF-0.31805431842803955
aF0.3850909173488617
aF-0.5419129133224487
aF0.5301554203033447
aF0.6178165078163147
aF0.20873042941093445
aa(lp550
F1611228964.71263
aF0.290010929107666
aF-0.31818100810050964
aF0.38510623574256897
aF-0.5402582287788391
aF0.5316399335861206
aF0.6176221370697021
aF0.20981642603874207
aa(lp551
F1611228964.722598
aF0.2900739908218384
aF-0.318238228559494
aF0.3851979076862335
aF-0.5404806137084961
aF0.5314417481422424
aF0.6177085638046265
aF0.2094915211200714
aa(lp552
F1611228964.723173
aF0.29015055298805237
aF-0.3182932138442993
aF0.38531509041786194
aF-0.5403119325637817
aF0.531987726688385
aF0.6174613237380981
aF0.20926915109157562
aa(lp553
F1611228964.732604
aF0.2902241051197052
aF-0.3183579444885254
aF0.3854708671569824
aF-0.5409165024757385
aF0.5323526263237
aF0.6167075634002686
aF0.2090018093585968
aa(lp554
F1611228964.742559
aF0.29028424620628357
aF-0.3184235990047455
aF0.38558030128479004
aF-0.5409510731697083
aF0.5324472784996033
aF0.6167086958885193
aF0.2086675763130188
aa(lp555
F1611228964.75257
aF0.2902809679508209
aF-0.31841087341308594
aF0.38568559288978577
aF-0.5424360036849976
aF0.530864417552948
aF0.6173423528671265
aF0.20696552097797394
aa(lp556
F1611228964.76266
aF0.2903639078140259
aF-0.31846097111701965
aF0.38574835658073425
aF-0.5425438284873962
aF0.5307503342628479
aF0.6174672842025757
aF0.20660234987735748
aa(lp557
F1611228964.772594
aF0.29056984186172485
aF-0.31861186027526855
aF0.38586610555648804
aF-0.5434536337852478
aF0.5301976799964905
aF0.617264449596405
aF0.20623601973056793
aa(lp558
F1611228964.782626
aF0.2906963527202606
aF-0.31869080662727356
aF0.385921835899353
aF-0.5431936979293823
aF0.5293702483177185
aF0.6183635592460632
aF0.20575319230556488
aa(lp559
F1611228964.792626
aF0.2907959520816803
aF-0.3187384307384491
aF0.38609445095062256
aF-0.5433194637298584
aF0.5294237732887268
aF0.6181503534317017
aF0.20592404901981354
aa(lp560
F1611228964.802571
aF0.29092735052108765
aF-0.3188074231147766
aF0.3862144649028778
aF-0.5434184670448303
aF0.5296381711959839
aF0.6177639961242676
aF0.20627020299434662
aa(lp561
F1611228964.812626
aF0.29106616973876953
aF-0.318878710269928
aF0.3862704336643219
aF-0.5436922311782837
aF0.529111921787262
aF0.6181911826133728
aF0.2056189775466919
aa(lp562
F1611228964.822621
aF0.2912197709083557
aF-0.31894055008888245
aF0.38635504245758057
aF-0.5430890321731567
aF0.5291106700897217
aF0.6187607049942017
aF0.2055029273033142
aa(lp563
F1611228964.823125
aF0.2913314998149872
aF-0.3190196454524994
aF0.386417418718338
aF-0.5432004332542419
aF0.5287824869155884
aF0.6191158890724182
aF0.2049826830625534
aa(lp564
F1611228964.832593
aF0.29141685366630554
aF-0.31910058856010437
aF0.3864839971065521
aF-0.5429485440254211
aF0.5286277532577515
aF0.619499921798706
aF0.20488916337490082
aa(lp565
F1611228964.842575
aF0.2914944887161255
aF-0.31916195154190063
aF0.3865334391593933
aF-0.5430684089660645
aF0.5289344191551208
aF0.6191565990447998
aF0.20481735467910767
aa(lp566
F1611228964.852657
aF0.29155296087265015
aF-0.3192295432090759
aF0.3865346312522888
aF-0.5431823134422302
aF0.5287067890167236
aF0.6193670630455017
aF0.2044667899608612
aa(lp567
F1611228964.862663
aF0.2916151285171509
aF-0.3192913234233856
aF0.38651251792907715
aF-0.5430957078933716
aF0.5288518071174622
aF0.6192359328269958
aF0.2047186642885208
aa(lp568
F1611228964.872631
aF0.2916771471500397
aF-0.31934240460395813
aF0.3864871561527252
aF-0.5429874062538147
aF0.5290369391441345
aF0.6190745234489441
aF0.2050153613090515
aa(lp569
F1611228964.873254
aF0.29174426198005676
aF-0.31939697265625
aF0.38640114665031433
aF-0.542815089225769
aF0.5291304588317871
aF0.619056761264801
aF0.20528385043144226
aa(lp570
F1611228964.882624
aF0.2917785942554474
aF-0.3194245994091034
aF0.38635650277137756
aF-0.5428802371025085
aF0.529329240322113
aF0.6187784075737
aF0.20543843507766724
aa(lp571
F1611228964.892645
aF0.29183444380760193
aF-0.3194417357444763
aF0.3862808644771576
aF-0.5426896214485168
aF0.5293606519699097
aF0.6188548803329468
aF0.20563095808029175
aa(lp572
F1611228964.902609
aF0.2918751537799835
aF-0.3194708824157715
aF0.38618767261505127
aF-0.542897641658783
aF0.529092013835907
aF0.6188828945159912
aF0.2056886851787567
aa(lp573
F1611228964.912588
aF0.29187074303627014
aF-0.31950291991233826
aF0.38610759377479553
aF-0.5432218313217163
aF0.5288143754005432
aF0.6187817454338074
aF0.20585107803344727
aa(lp574
F1611228964.922611
aF0.2918471097946167
aF-0.319497674703598
aF0.3859194815158844
aF-0.5428783893585205
aF0.5283071994781494
aF0.6197335124015808
aF0.20519521832466125
aa(lp575
F1611228964.923139
aF0.2918552756309509
aF-0.3195100724697113
aF0.38578975200653076
aF-0.5431809425354004
aF0.5279703736305237
aF0.619708776473999
aF0.20533616840839386
aa(lp576
F1611228964.93263
aF0.29186850786209106
aF-0.3195248246192932
aF0.38564062118530273
aF-0.5430454611778259
aF0.5277072191238403
aF0.619943380355835
aF0.20566220581531525
aa(lp577
F1611228964.94251
aF0.2918781042098999
aF-0.31952545046806335
aF0.3855496942996979
aF-0.5433564186096191
aF0.5275688767433167
aF0.6197114586830139
aF0.20589490234851837
aa(lp578
F1611228964.952598
aF0.2919061779975891
aF-0.3195382356643677
aF0.3854787051677704
aF-0.5431633591651917
aF0.5275146961212158
aF0.6198851466178894
aF0.20602011680603027
aa(lp579
F1611228964.962559
aF0.29193150997161865
aF-0.31954866647720337
aF0.3854328989982605
aF-0.5428699851036072
aF0.5282681584358215
aF0.6195279955863953
aF0.205936998128891
aa(lp580
F1611228964.972592
aF0.2919563353061676
aF-0.31955090165138245
aF0.385439932346344
aF-0.5427240133285522
aF0.5282568335533142
aF0.6196070909500122
aF0.20611274242401123
aa(lp581
F1611228964.973146
aF0.29197806119918823
aF-0.31954923272132874
aF0.3854472041130066
aF-0.5426055192947388
aF0.5280266404151917
aF0.619986891746521
aF0.20587243139743805
aa(lp582
F1611228964.982631
aF0.291989266872406
aF-0.3195306360721588
aF0.3854471743106842
aF-0.5426675081253052
aF0.5280815958976746
aF0.619909942150116
aF0.20579980313777924
aa(lp583
F1611228964.992578
aF0.2919931709766388
aF-0.31949493288993835
aF0.38539668917655945
aF-0.5427011251449585
aF0.5284346342086792
aF0.6195438504219055
aF0.20590737462043762
aa(lp584
F1611228965.00256
aF0.2920551896095276
aF-0.31954512000083923
aF0.3853243291378021
aF-0.54136061668396
aF0.5301987528800964
aF0.6186673045158386
aF0.20753033459186554
aa(lp585
F1611228965.01258
aF0.2919374704360962
aF-0.3195006847381592
aF0.38523349165916443
aF-0.5429903864860535
aF0.5280135869979858
aF0.6196976900100708
aF0.20576196908950806
aa(lp586
F1611228965.022581
aF0.2919565439224243
aF-0.3194480240345001
aF0.38530048727989197
aF-0.5432649254798889
aF0.5281304717063904
aF0.6191451549530029
aF0.20639951527118683
aa(lp587
F1611228965.02313
aF0.2918774485588074
aF-0.31939396262168884
aF0.3853933811187744
aF-0.544313371181488
aF0.5275296568870544
aF0.6187395453453064
aF0.20638997852802277
aa(lp588
F1611228965.032615
aF0.29186421632766724
aF-0.31936216354370117
aF0.3854391574859619
aF-0.5443265438079834
aF0.5279859900474548
aF0.6184194684028625
aF0.20614752173423767
aa(lp589
F1611228965.042622
aF0.2918325364589691
aF-0.31933799386024475
aF0.3855404555797577
aF-0.5442689061164856
aF0.5284330248832703
aF0.6181010007858276
aF0.20610930025577545
aa(lp590
F1611228965.052575
aF0.29181721806526184
aF-0.3193008303642273
aF0.3856658339500427
aF-0.5442201495170593
aF0.5281818509101868
aF0.6184280514717102
aF0.2059008777141571
aa(lp591
F1611228965.06258
aF0.2917686402797699
aF-0.3192572593688965
aF0.38576310873031616
aF-0.5439702868461609
aF0.5282988548278809
aF0.6186971068382263
aF0.20545238256454468
aa(lp592
F1611228965.072619
aF0.29172030091285706
aF-0.3192289471626282
aF0.38585013151168823
aF-0.544154703617096
aF0.528683602809906
aF0.6181138157844543
aF0.2057294249534607
aa(lp593
F1611228965.073139
aF0.2916371822357178
aF-0.31917068362236023
aF0.3859393298625946
aF-0.5441721677780151
aF0.5287300944328308
aF0.6182088255882263
aF0.20527781546115875
aa(lp594
F1611228965.082557
aF0.2915489971637726
aF-0.31914034485816956
aF0.38602182269096375
aF-0.5440305471420288
aF0.5284439921379089
aF0.6185298562049866
aF0.20542322099208832
aa(lp595
F1611228965.092565
aF0.2914889454841614
aF-0.3191090226173401
aF0.3861394226551056
aF-0.5440601110458374
aF0.5283480286598206
aF0.6185706257820129
aF0.20546884834766388
aa(lp596
F1611228965.10258
aF0.29140743613243103
aF-0.31906625628471375
aF0.3862248361110687
aF-0.5440464615821838
aF0.5286486148834229
aF0.6182841658592224
aF0.20559410750865936
aa(lp597
F1611228965.112572
aF0.2913462221622467
aF-0.31904318928718567
aF0.38632041215896606
aF-0.5439112782478333
aF0.5286027789115906
aF0.6184502243995667
aF0.20556983351707458
aa(lp598
F1611228965.122624
aF0.2912944257259369
aF-0.31899529695510864
aF0.38644781708717346
aF-0.5440230965614319
aF0.528856635093689
aF0.6181463003158569
aF0.2055349200963974
aa(lp599
F1611228965.123191
aF0.2912704348564148
aF-0.31898975372314453
aF0.3865310847759247
aF-0.5438026785850525
aF0.528842031955719
aF0.6183663010597229
aF0.20549406111240387
aa(lp600
F1611228965.132623
aF0.29120007157325745
aF-0.318815141916275
aF0.38681596517562866
aF-0.5411421060562134
aF0.5317994356155396
aF0.618625283241272
aF0.2041013538837433
aa(lp601
F1611228965.142626
aF0.29119133949279785
aF-0.3188125789165497
aF0.38687005639076233
aF-0.54117751121521
aF0.5319958329200745
aF0.6184023022651672
aF0.20417164266109467
aa(lp602
F1611228965.152557
aF0.29117661714553833
aF-0.31883299350738525
aF0.38691243529319763
aF-0.5414304733276367
aF0.5317034125328064
aF0.6184108257293701
aF0.2042364627122879
aa(lp603
F1611228965.162601
aF0.2911908030509949
aF-0.31883910298347473
aF0.3869294226169586
aF-0.5415604710578918
aF0.5314228534698486
aF0.6185309886932373
aF0.20425815880298615
aa(lp604
F1611228965.172577
aF0.2911905348300934
aF-0.3188507556915283
aF0.3869345784187317
aF-0.5416311025619507
aF0.5314732193946838
aF0.6184561252593994
aF0.20416662096977234
aa(lp605
F1611228965.173109
aF0.2911949157714844
aF-0.3188473880290985
aF0.3869357109069824
aF-0.5417138934135437
aF0.5315608382225037
aF0.618308424949646
aF0.20416657626628876
aa(lp606
F1611228965.182554
aF0.29120954871177673
aF-0.31884193420410156
aF0.3869798183441162
aF-0.541739821434021
aF0.5314537286758423
aF0.6183881163597107
aF0.20413506031036377
aa(lp607
F1611228965.192566
aF0.2912237048149109
aF-0.3188512623310089
aF0.3870370388031006
aF-0.5415201783180237
aF0.531481146812439
aF0.6185957789421082
aF0.20401707291603088
aa(lp608
F1611228965.202606
aF0.2912381887435913
aF-0.3188599944114685
aF0.3870903253555298
aF-0.5414209365844727
aF0.5315120220184326
aF0.6187072396278381
aF0.20386233925819397
aa(lp609
F1611228965.212577
aF0.29127493500709534
aF-0.3188752233982086
aF0.38713881373405457
aF-0.5415207743644714
aF0.5319482684135437
aF0.6181726455688477
aF0.20408041775226593
aa(lp610
F1611228965.222581
aF0.2913048565387726
aF-0.31890377402305603
aF0.38714805245399475
aF-0.541614294052124
aF0.5314996242523193
aF0.6184754967689514
aF0.204083651304245
aa(lp611
F1611228965.223134
aF0.2913648784160614
aF-0.31891652941703796
aF0.3871009945869446
aF-0.5415472984313965
aF0.5316575169563293
aF0.6184462308883667
aF0.2039392739534378
aa(lp612
F1611228965.232544
aF0.291423499584198
aF-0.3189486563205719
aF0.3870522379875183
aF-0.5420188307762146
aF0.531500518321991
aF0.61824631690979
aF0.20370149612426758
aa(lp613
F1611228965.242556
aF0.29152268171310425
aF-0.319131076335907
aF0.3868457078933716
aF-0.544374942779541
aF0.5290525555610657
aF0.617861270904541
aF0.20495551824569702
aa(lp614
F1611228965.25258
aF0.2915872633457184
aF-0.31916865706443787
aF0.3868262469768524
aF-0.544510006904602
aF0.529395341873169
aF0.6174430251121521
aF0.2049722969532013
aa(lp615
F1611228965.26254
aF0.2916823625564575
aF-0.3191920220851898
aF0.3868074417114258
aF-0.5443393588066101
aF0.5294719338417053
aF0.6175228953361511
aF0.20498718321323395
aa(lp616
F1611228965.272562
aF0.29178667068481445
aF-0.3191794455051422
aF0.38684117794036865
aF-0.5438436269760132
aF0.5302413105964661
aF0.6172013878822327
aF0.20528243482112885
aa(lp617
F1611228965.273101
aF0.29188820719718933
aF-0.3191951811313629
aF0.38683605194091797
aF-0.5437586903572083
aF0.5301072001457214
aF0.6174101829528809
aF0.20522578060626984
aa(lp618
F1611228965.282616
aF0.29207995533943176
aF-0.31912973523139954
aF0.38698098063468933
aF-0.5403913259506226
aF0.5337769985198975
aF0.616909921169281
aF0.206110417842865
aa(lp619
F1611228965.292574
aF0.29217275977134705
aF-0.31914445757865906
aF0.3869369924068451
aF-0.5404969453811646
aF0.5337210893630981
aF0.6169267296791077
aF0.20592796802520752
aa(lp620
F1611228965.302547
aF0.2922472357749939
aF-0.31914594769477844
aF0.38691768050193787
aF-0.5403483510017395
aF0.5338382124900818
aF0.616863489151001
aF0.20620377361774445
aa(lp621
F1611228965.312633
aF0.2923133969306946
aF-0.319149374961853
aF0.3868720531463623
aF-0.5404123067855835
aF0.5336836576461792
aF0.6169663667678833
aF0.20612815022468567
aa(lp622
F1611228965.322602
aF0.2923724353313446
aF-0.3191572427749634
aF0.38682231307029724
aF-0.5405773520469666
aF0.5336301326751709
aF0.6168448328971863
aF0.20619775354862213
aa(lp623
F1611228965.323146
aF0.29241952300071716
aF-0.319166362285614
aF0.3867703378200531
aF-0.5404302477836609
aF0.5338711142539978
aF0.61670982837677
aF0.2063630372285843
aa(lp624
F1611228965.332563
aF0.29245448112487793
aF-0.31915342807769775
aF0.3867046535015106
aF-0.5402566194534302
aF0.533790111541748
aF0.6168575286865234
aF0.20658613741397858
aa(lp625
F1611228965.342569
aF0.292397141456604
aF-0.3190667927265167
aF0.3865636885166168
aF-0.5415968298912048
aF0.5322269201278687
aF0.6176745295524597
aF0.20465989410877228
aa(lp626
F1611228965.352599
aF0.292523592710495
aF-0.31926190853118896
aF0.3863012194633484
aF-0.5399863719940186
aF0.52988600730896
aF0.6217183470726013
aF0.2027359902858734
aa(lp627
F1611228965.362624
aF0.2924349009990692
aF-0.3190421164035797
aF0.3863993287086487
aF-0.5416210293769836
aF0.5316956043243408
aF0.6180744171142578
aF0.20476941764354706
aa(lp628
F1611228965.372664
aF0.2924058437347412
aF-0.31902843713760376
aF0.3863072693347931
aF-0.5417803525924683
aF0.531951904296875
aF0.6177614331245422
aF0.20462682843208313
aa(lp629
F1611228965.373239
aF0.29238367080688477
aF-0.3190220594406128
aF0.3862244486808777
aF-0.5420753359794617
aF0.5322126746177673
aF0.6171905398368835
aF0.204889714717865
aa(lp630
F1611228965.382455
aF0.29238027334213257
aF-0.3190288245677948
aF0.38610386848449707
aF-0.5420423150062561
aF0.5317181944847107
aF0.617657482624054
aF0.20485389232635498
aa(lp631
F1611228965.392584
aF0.29237619042396545
aF-0.31917527318000793
aF0.38584670424461365
aF-0.5441192984580994
aF0.529312014579773
aF0.6173529028892517
aF0.20649079978466034
aa(lp632
F1611228965.402572
aF0.2923596501350403
aF-0.31913143396377563
aF0.38576439023017883
aF-0.5440291166305542
aF0.528354287147522
aF0.6182964444160461
aF0.20635774731636047
aa(lp633
F1611228965.412639
aF0.2923312187194824
aF-0.3191186487674713
aF0.38571396470069885
aF-0.5438964366912842
aF0.528438925743103
aF0.6182790994644165
aF0.20654286444187164
aa(lp634
F1611228965.422594
aF0.2922861874103546
aF-0.3191004693508148
aF0.3857150971889496
aF-0.5439916849136353
aF0.5290036797523499
aF0.6176838278770447
aF0.2066272795200348
aa(lp635
F1611228965.423157
aF0.29226797819137573
aF-0.31907039880752563
aF0.38574251532554626
aF-0.5437663197517395
aF0.528555691242218
aF0.6183891296386719
aF0.20625746250152588
aa(lp636
F1611228965.432593
aF0.2922244071960449
aF-0.31902483105659485
aF0.38574373722076416
aF-0.5435231328010559
aF0.5281177759170532
aF0.6191463470458984
aF0.20574767887592316
aa(lp637
F1611228965.442602
aF0.29219120740890503
aF-0.31899040937423706
aF0.38577619194984436
aF-0.5435150265693665
aF0.5281633138656616
aF0.619133472442627
aF0.20569081604480743
aa(lp638
F1611228965.45265
aF0.29216018319129944
aF-0.31894832849502563
aF0.38580068945884705
aF-0.5433854460716248
aF0.5280529856681824
aF0.6194196939468384
aF0.20545464754104614
aa(lp639
F1611228965.462568
aF0.2921150028705597
aF-0.31892263889312744
aF0.3858219087123871
aF-0.5432161688804626
aF0.5282673239707947
aF0.6193687915802002
aF0.20550471544265747
aa(lp640
F1611228965.472608
aF0.29205381870269775
aF-0.31888172030448914
aF0.38585302233695984
aF-0.5432735681533813
aF0.5282014608383179
aF0.6193443536758423
aF0.20559585094451904
aa(lp641
F1611228965.473138
aF0.29194706678390503
aF-0.3188494145870209
aF0.385896235704422
aF-0.543392539024353
aF0.5283650755882263
aF0.6190889477729797
aF0.20563019812107086
aa(lp642
F1611228965.482559
aF0.2918482720851898
aF-0.3187943994998932
aF0.38594159483909607
aF-0.5432870388031006
aF0.5286524295806885
aF0.6188732385635376
aF0.20581966638565063
aa.