(lp0
(lp1
F1611228974.412523
aI-79
aI21
aI463
a(I3
I1
I-3
I3
I0
I-1
I3
I0
I-3
I-1
I-6
I-6
I0
I3
I-5
I-2
I4
I7
I-3
I1
I3
I4
tp2
a(I115
I-33
I13
I96
I34
I95
I-225
I-295
I-276
I-740
I133
I-31
I6
I95
I28
I86
I-1646
I4
I22
tp3
aa(lp4
F1611228974.422833
aI-80
aI21
aI462
a(I-5
I-4
I-1
I10
I1
I-2
I3
I5
I-2
I0
I0
I0
I2
I4
I2
I-3
I-4
I4
I4
I0
I0
I-2
tp5
a(I115
I-31
I13
I93
I34
I95
I-225
I-294
I-276
I-739
I134
I-30
I7
I93
I28
I85
I-1647
I4
I22
tp6
aa(lp7
F1611228974.432474
aI-80
aI22
aI462
a(I3
I0
I-2
I-2
I3
I0
I0
I4
I0
I0
I2
I3
I1
I5
I-4
I0
I7
I5
I-5
I8
I5
I2
tp8
a(I115
I-31
I13
I93
I34
I96
I-224
I-294
I-276
I-740
I134
I-30
I7
I94
I29
I87
I-1648
I4
I21
tp9
aa(lp10
F1611228974.442637
aI-80
aI21
aI462
a(I2
I-4
I0
I0
I-8
I-6
I-5
I0
I0
I0
I-4
I0
I5
I0
I-7
I-6
I0
I-2
I-3
I6
I4
I-2
tp11
a(I116
I-34
I13
I95
I34
I96
I-224
I-295
I-276
I-739
I133
I-30
I7
I94
I29
I86
I-1647
I5
I22
tp12
aa(lp13
F1611228974.452497
aI-80
aI22
aI462
a(I0
I0
I0
I-3
I-3
I3
I2
I2
I-4
I4
I2
I-1
I-2
I6
I3
I-5
I1
I5
I-2
I-3
I4
I-2
tp14
a(I115
I-32
I13
I95
I35
I95
I-224
I-293
I-275
I-740
I134
I-30
I7
I95
I28
I87
I-1646
I4
I22
tp15
aa(lp16
F1611228974.462381
aI-80
aI22
aI462
a(I0
I-1
I-5
I0
I2
I-11
I-5
I6
I-2
I-2
I-6
I0
I7
I-2
I-12
I-8
I3
I-3
I-7
I3
I13
I1
tp17
a(I116
I-33
I14
I94
I35
I96
I-225
I-295
I-277
I-739
I134
I-31
I8
I93
I29
I85
I-1645
I4
I21
tp18
aa(lp19
F1611228974.472418
aI-80
aI22
aI462
a(I-9
I-5
I0
I0
I-7
I3
I1
I-2
I4
I0
I4
I4
I-6
I5
I9
I-4
I-12
I0
I4
I-4
I-1
I-2
tp20
a(I116
I-33
I15
I95
I33
I96
I-225
I-295
I-276
I-740
I134
I-31
I7
I94
I29
I86
I-1646
I3
I22
tp21
aa(lp22
F1611228974.482574
aI-79
aI22
aI463
a(I3
I-4
I-11
I-7
I-1
I2
I0
I-1
I0
I-2
I-1
I-2
I0
I-3
I0
I2
I0
I-6
I-7
I-2
I5
I0
tp23
a(I116
I-32
I14
I95
I33
I95
I-224
I-295
I-276
I-740
I132
I-31
I8
I93
I29
I85
I-1648
I4
I22
tp24
aa(lp25
F1611228974.492389
aI-80
aI20
aI462
a(I-8
I0
I5
I-1
I-6
I-3
I-3
I-2
I4
I-2
I-6
I0
I2
I5
I6
I-3
I-3
I6
I2
I-1
I-1
I0
tp26
a(I115
I-32
I12
I95
I33
I96
I-224
I-294
I-276
I-740
I132
I-30
I8
I93
I29
I86
I-1646
I3
I23
tp27
aa(lp28
F1611228974.502308
aI-80
aI20
aI462
a(I-2
I0
I3
I-2
I2
I6
I0
I-5
I2
I5
I8
I1
I-3
I6
I12
I0
I-8
I4
I6
I1
I-5
I-1
tp29
a(I115
I-32
I13
I95
I35
I95
I-225
I-294
I-274
I-739
I133
I-32
I8
I94
I29
I85
I-1647
I2
I21
tp30
aa(lp31
F1611228974.512575
aI-80
aI20
aI462
a(I2
I0
I0
I-10
I-1
I6
I-1
I-2
I6
I6
I2
I-1
I-7
I-4
I3
I3
I-6
I-3
I2
I4
I0
I-2
tp32
a(I115
I-32
I13
I93
I33
I94
I-225
I-295
I-276
I-740
I133
I-30
I7
I94
I29
I86
I-1646
I3
I20
tp33
aa(lp34
F1611228974.522422
aI-80
aI21
aI463
a(I-8
I3
I4
I-9
I-2
I8
I6
I-4
I-2
I5
I-2
I-5
I0
I-1
I3
I-4
I2
I2
I3
I-3
I1
I8
tp35
a(I116
I-31
I14
I96
I35
I96
I-225
I-294
I-276
I-739
I134
I-29
I7
I94
I30
I85
I-1646
I4
I21
tp36
aa(lp37
F1611228974.532539
aI-79
aI21
aI462
a(I2
I-6
I3
I-1
I-7
I6
I8
I5
I0
I0
I0
I1
I0
I3
I8
I4
I-4
I1
I8
I2
I-5
I0
tp38
a(I116
I-32
I13
I93
I35
I95
I-225
I-295
I-275
I-739
I134
I-30
I8
I93
I29
I86
I-1646
I4
I22
tp39
aa(lp40
F1611228974.542633
aI-80
aI20
aI463
a(I4
I2
I-1
I4
I-2
I0
I0
I1
I0
I2
I-6
I-2
I3
I3
I-5
I-4
I-1
I-5
I-3
I-4
I-6
I3
tp41
a(I116
I-33
I12
I94
I34
I95
I-225
I-294
I-276
I-739
I132
I-30
I6
I94
I29
I86
I-1645
I5
I21
tp42
aa(lp43
F1611228974.552388
aI-80
aI20
aI462
a(I-2
I-3
I-1
I5
I-2
I0
I2
I-2
I-4
I2
I0
I1
I-1
I-2
I4
I2
I-1
I0
I5
I7
I0
I0
tp44
a(I115
I-32
I14
I95
I33
I95
I-225
I-295
I-276
I-740
I133
I-32
I6
I94
I29
I85
I-1648
I3
I22
tp45
aa(lp46
F1611228974.562619
aI-80
aI19
aI462
a(I0
I1
I-5
I-3
I0
I-1
I-2
I0
I-2
I0
I0
I5
I-2
I1
I1
I3
I-3
I4
I2
I2
I5
I0
tp47
a(I116
I-32
I14
I94
I33
I94
I-225
I-295
I-275
I-739
I133
I-31
I8
I93
I27
I86
I-1648
I3
I22
tp48
aa(lp49
F1611228974.572546
aI-80
aI20
aI463
a(I0
I-4
I-5
I1
I1
I-3
I7
I3
I0
I-9
I0
I10
I0
I-5
I4
I6
I-2
I-3
I-3
I2
I6
I-3
tp50
a(I115
I-32
I12
I94
I33
I96
I-225
I-293
I-275
I-740
I133
I-31
I7
I94
I28
I85
I-1648
I3
I22
tp51
aa(lp52
F1611228974.582754
aI-79
aI23
aI462
a(I-3
I2
I-1
I-4
I0
I0
I-2
I4
I9
I-1
I3
I5
I15
I4
I5
I2
I3
I5
I-4
I-7
I3
I1
tp53
a(I115
I-32
I13
I94
I35
I94
I-225
I-294
I-275
I-740
I134
I-31
I8
I93
I31
I87
I-1647
I4
I21
tp54
aa(lp55
F1611228974.592315
aI-80
aI21
aI462
a(I-6
I-1
I6
I0
I3
I0
I6
I6
I4
I-6
I6
I4
I-8
I-1
I11
I2
I-7
I-2
I2
I-3
I2
I-7
tp56
a(I115
I-32
I12
I95
I35
I96
I-225
I-295
I-276
I-739
I132
I-31
I7
I94
I29
I87
I-1647
I3
I21
tp57
aa(lp58
F1611228974.603497
aI-80
aI22
aI463
a(I-6
I6
I-8
I-6
I1
I-7
I0
I3
I-2
I0
I4
I-2
I-4
I1
I3
I-5
I-2
I5
I0
I0
I4
I1
tp59
a(I115
I-32
I12
I95
I36
I95
I-224
I-295
I-276
I-740
I134
I-31
I7
I93
I28
I86
I-1646
I5
I22
tp60
aa(lp61
F1611228974.612364
aI-80
aI21
aI463
a(I2
I-2
I-11
I-4
I0
I-1
I-3
I2
I0
I-2
I-5
I-6
I-7
I1
I0
I-2
I4
I10
I0
I-10
I1
I6
tp62
a(I115
I-32
I14
I95
I33
I96
I-224
I-294
I-276
I-740
I133
I-31
I7
I94
I29
I87
I-1647
I4
I22
tp63
aa(lp64
F1611228974.622259
aI-80
aI21
aI463
a(I-3
I0
I-4
I3
I9
I-1
I-2
I7
I9
I0
I1
I2
I6
I2
I-4
I-4
I2
I1
I0
I-3
I-6
I0
tp65
a(I116
I-32
I13
I94
I34
I94
I-225
I-294
I-275
I-740
I132
I-32
I9
I94
I29
I86
I-1648
I4
I21
tp66
aa(lp67
F1611228974.63325
aI-80
aI21
aI462
a(I0
I-8
I-3
I-1
I0
I0
I3
I0
I-5
I-3
I-7
I-3
I-2
I-2
I3
I4
I-5
I-10
I1
I4
I0
I-7
tp68
a(I115
I-31
I13
I94
I34
I97
I-225
I-294
I-275
I-740
I134
I-31
I8
I93
I28
I87
I-1647
I4
I21
tp69
aa(lp70
F1611228974.642369
aI-79
aI22
aI462
a(I-3
I5
I4
I-8
I-6
I8
I14
I-2
I-2
I0
I-1
I-4
I-2
I-7
I-3
I4
I0
I-6
I-3
I4
I1
I5
tp71
a(I115
I-32
I14
I95
I35
I96
I-224
I-294
I-275
I-739
I133
I-30
I6
I94
I28
I86
I-1646
I4
I21
tp72
aa(lp73
F1611228974.652259
aI-80
aI22
aI463
a(I4
I-3
I-3
I-7
I-3
I1
I0
I-7
I3
I-4
I-7
I2
I-1
I-1
I7
I-1
I-9
I0
I4
I0
I0
I4
tp74
a(I115
I-32
I13
I95
I34
I95
I-224
I-294
I-276
I-740
I132
I-30
I7
I94
I28
I86
I-1646
I4
I22
tp75
aa(lp76
F1611228974.662716
aI-80
aI19
aI463
a(I-6
I-9
I-1
I-2
I-5
I-8
I6
I3
I1
I-17
I-6
I5
I1
I-7
I-4
I5
I-6
I-12
I-3
I0
I-3
I-1
tp77
a(I114
I-31
I15
I96
I35
I96
I-225
I-294
I-276
I-739
I134
I-30
I7
I94
I28
I86
I-1648
I3
I21
tp78
aa(lp79
F1611228974.672409
aI-80
aI19
aI462
a(I0
I2
I-2
I3
I2
I-2
I-2
I-6
I2
I4
I-1
I-6
I0
I-4
I-11
I-1
I-1
I0
I3
I6
I-2
I-3
tp80
a(I116
I-33
I13
I94
I35
I95
I-225
I-293
I-276
I-738
I134
I-30
I7
I94
I29
I85
I-1646
I5
I21
tp81
aa(lp82
F1611228974.68236
aI-80
aI21
aI463
a(I0
I-7
I0
I2
I-3
I2
I2
I-1
I0
I3
I3
I4
I7
I2
I-3
I0
I-4
I-9
I3
I5
I0
I8
tp83
a(I117
I-32
I13
I95
I35
I96
I-225
I-293
I-276
I-739
I134
I-30
I8
I95
I29
I87
I-1648
I4
I20
tp84
aa(lp85
F1611228974.692606
aI-79
aI23
aI463
a(I-2
I1
I1
I3
I-3
I0
I1
I5
I-2
I5
I4
I-2
I1
I-2
I0
I1
I-5
I1
I0
I6
I-3
I3
tp86
a(I115
I-32
I13
I95
I35
I96
I-225
I-293
I-275
I-740
I134
I-31
I8
I93
I29
I85
I-1645
I4
I22
tp87
aa(lp88
F1611228974.702492
aI-80
aI23
aI462
a(I2
I-6
I-6
I7
I3
I-6
I4
I5
I7
I5
I-7
I-6
I5
I0
I-9
I-1
I4
I2
I5
I0
I0
I6
tp89
a(I115
I-32
I14
I96
I35
I96
I-225
I-294
I-276
I-739
I132
I-30
I7
I94
I30
I85
I-1647
I4
I21
tp90
aa(lp91
F1611228974.712382
aI-79
aI23
aI463
a(I4
I-1
I3
I10
I-2
I3
I0
I6
I-7
I-4
I-6
I-4
I-4
I-4
I-1
I4
I-3
I-12
I2
I3
I-4
I-7
tp92
a(I115
I-32
I13
I94
I33
I95
I-225
I-294
I-275
I-739
I132
I-29
I8
I94
I29
I86
I-1646
I4
I21
tp93
aa(lp94
F1611228974.722708
aI-79
aI21
aI462
a(I-3
I-3
I-5
I-6
I-6
I0
I1
I-5
I-7
I6
I-9
I-7
I2
I-5
I-5
I-7
I-1
I-1
I-2
I-3
I2
I6
tp95
a(I115
I-33
I13
I94
I32
I95
I-225
I-295
I-276
I-739
I133
I-30
I7
I94
I31
I86
I-1645
I3
I22
tp96
aa(lp97
F1611228974.732486
aI-79
aI21
aI462
a(I-4
I-7
I2
I3
I-4
I-4
I3
I0
I-3
I1
I1
I0
I4
I0
I-1
I5
I1
I-2
I3
I8
I1
I-2
tp98
a(I115
I-32
I13
I95
I34
I96
I-225
I-295
I-275
I-739
I134
I-30
I7
I94
I30
I87
I-1647
I3
I21
tp99
aa(lp100
F1611228974.742424
aI-80
aI21
aI462
a(I-7
I2
I-3
I-1
I-12
I6
I6
I-5
I-6
I6
I4
I-4
I-1
I6
I1
I0
I-4
I-2
I-2
I2
I-2
I0
tp101
a(I114
I-31
I13
I95
I35
I94
I-225
I-294
I-276
I-739
I132
I-29
I8
I93
I29
I85
I-1648
I3
I20
tp102
aa(lp103
F1611228974.752597
aI-80
aI21
aI463
a(I5
I0
I0
I4
I-7
I-1
I2
I-5
I-6
I0
I-4
I0
I4
I0
I-6
I6
I0
I-3
I1
I15
I1
I-1
tp104
a(I115
I-32
I12
I95
I33
I95
I-225
I-294
I-276
I-740
I133
I-31
I7
I95
I28
I87
I-1648
I4
I20
tp105
aa(lp106
F1611228974.762681
aI-79
aI20
aI462
a(I-2
I-1
I10
I0
I-6
I0
I6
I-4
I-4
I-1
I-2
I0
I2
I-3
I0
I1
I-7
I-7
I0
I0
I-5
I4
tp107
a(I115
I-30
I13
I95
I34
I96
I-225
I-293
I-276
I-739
I132
I-31
I7
I93
I29
I86
I-1647
I5
I23
tp108
aa(lp109
F1611228974.77244
aI-80
aI19
aI463
a(I-9
I-2
I5
I-1
I-4
I3
I0
I-2
I0
I5
I1
I3
I4
I0
I2
I8
I-2
I1
I3
I3
I-9
I-2
tp110
a(I115
I-32
I12
I94
I35
I96
I-226
I-294
I-275
I-740
I134
I-29
I7
I93
I29
I85
I-1645
I4
I21
tp111
aa(lp112
F1611228974.783166
aI-80
aI19
aI462
a(I4
I-8
I-7
I-11
I1
I-1
I-3
I-11
I7
I0
I-7
I-3
I7
I4
I-4
I0
I0
I1
I5
I-2
I0
I6
tp113
a(I115
I-32
I13
I94
I33
I95
I-223
I-294
I-275
I-740
I133
I-30
I7
I92
I31
I85
I-1646
I3
I21
tp114
aa(lp115
F1611228974.792541
aI-79
aI21
aI463
a(I2
I-5
I-2
I0
I-3
I0
I3
I1
I2
I5
I-1
I0
I3
I0
I4
I3
I-7
I-1
I1
I-3
I-6
I-1
tp116
a(I115
I-31
I14
I95
I34
I96
I-225
I-294
I-275
I-739
I132
I-30
I6
I93
I29
I86
I-1647
I3
I20
tp117
aa(lp118
F1611228974.802369
aI-80
aI21
aI462
a(I4
I-2
I-4
I0
I1
I2
I4
I-2
I3
I4
I-3
I1
I1
I0
I4
I9
I-5
I-4
I0
I6
I-2
I0
tp119
a(I116
I-32
I13
I95
I34
I96
I-225
I-295
I-276
I-740
I133
I-28
I7
I94
I28
I86
I-1647
I2
I20
tp120
aa(lp121
F1611228974.812858
aI-80
aI21
aI462
a(I4
I0
I-3
I0
I-3
I-2
I0
I-3
I1
I-2
I0
I0
I5
I-5
I-3
I6
I1
I-1
I-6
I1
I5
I7
tp122
a(I115
I-32
I12
I93
I33
I95
I-225
I-294
I-275
I-739
I132
I-30
I8
I94
I29
I85
I-1646
I3
I23
tp123
aa(lp124
F1611228974.822562
aI-80
aI22
aI462
a(I-8
I-7
I7
I8
I-8
I-7
I7
I10
I0
I-3
I3
I8
I11
I-3
I0
I12
I3
I3
I3
I6
I7
I7
tp125
a(I114
I-31
I14
I95
I34
I96
I-225
I-294
I-274
I-739
I133
I-30
I7
I95
I28
I86
I-1646
I4
I21
tp126
aa(lp127
F1611228974.832461
aI-80
aI23
aI462
a(I0
I0
I-1
I7
I1
I0
I2
I11
I4
I0
I0
I5
I8
I-11
I-6
I-4
I6
I0
I-9
I-3
I1
I1
tp128
a(I115
I-31
I12
I95
I33
I96
I-225
I-295
I-276
I-740
I133
I-30
I8
I93
I29
I85
I-1646
I3
I22
tp129
aa(lp130
F1611228974.842766
aI-80
aI22
aI463
a(I-2
I-12
I-5
I4
I3
I-3
I-6
I4
I2
I3
I-1
I-1
I2
I0
I-5
I-1
I2
I1
I-3
I1
I11
I1
tp131
a(I115
I-32
I13
I95
I34
I94
I-223
I-294
I-274
I-739
I133
I-30
I7
I94
I30
I86
I-1648
I3
I22
tp132
aa(lp133
F1611228974.852646
aI-80
aI20
aI462
a(I-4
I-4
I3
I-1
I2
I1
I2
I1
I2
I-2
I0
I-2
I0
I1
I-3
I-5
I4
I0
I-12
I-6
I10
I5
tp134
a(I114
I-32
I13
I95
I34
I95
I-225
I-294
I-275
I-740
I132
I-30
I8
I94
I28
I86
I-1645
I4
I21
tp135
aa(lp136
F1611228974.862607
aI-80
aI21
aI463
a(I-6
I-8
I-1
I5
I-5
I-16
I-7
I6
I0
I-14
I0
I8
I-3
I-14
I-11
I7
I4
I-5
I-10
I3
I6
I-12
tp137
a(I116
I-32
I13
I94
I35
I96
I-225
I-293
I-276
I-739
I134
I-31
I8
I94
I28
I87
I-1646
I3
I22
tp138
aa(lp139
F1611228974.872528
aI-80
aI20
aI462
a(I-3
I0
I0
I-1
I0
I-1
I2
I-2
I2
I0
I4
I1
I2
I-2
I0
I-2
I3
I-1
I-6
I-3
I0
I1
tp140
a(I116
I-32
I14
I95
I34
I96
I-224
I-293
I-276
I-740
I133
I-30
I7
I93
I28
I85
I-1646
I4
I21
tp141
aa(lp142
F1611228974.882932
aI-80
aI19
aI462
a(I-3
I-4
I-3
I5
I0
I-7
I-1
I4
I-1
I-2
I5
I3
I-2
I0
I3
I3
I2
I0
I3
I8
I0
I-2
tp143
a(I115
I-32
I14
I93
I33
I96
I-225
I-295
I-275
I-739
I132
I-30
I8
I94
I29
I85
I-1645
I3
I21
tp144
aa(lp145
F1611228974.892432
aI-80
aI20
aI463
a(I7
I0
I-9
I-1
I3
I-7
I-5
I-2
I3
I1
I-4
I-1
I10
I2
I-5
I1
I-1
I-1
I-4
I5
I7
I0
tp146
a(I115
I-31
I12
I94
I35
I95
I-224
I-295
I-276
I-739
I134
I-30
I6
I94
I29
I86
I-1646
I4
I22
tp147
aa(lp148
F1611228974.902539
aI-79
aI21
aI463
a(I0
I3
I3
I0
I-4
I4
I6
I0
I-3
I7
I4
I0
I-6
I0
I3
I0
I-1
I1
I0
I0
I0
I-1
tp149
a(I115
I-31
I13
I95
I34
I96
I-225
I-294
I-276
I-739
I134
I-30
I8
I94
I29
I86
I-1645
I5
I22
tp150
aa(lp151
F1611228974.912664
aI-79
aI20
aI462
a(I-7
I2
I-3
I-7
I2
I-1
I0
I3
I6
I1
I4
I5
I-5
I-6
I6
I-5
I-8
I0
I-4
I-2
I0
I-2
tp152
a(I115
I-32
I13
I96
I33
I96
I-224
I-293
I-275
I-739
I134
I-30
I7
I94
I30
I86
I-1646
I4
I22
tp153
aa(lp154
F1611228974.922575
aI-80
aI19
aI463
a(I1
I0
I0
I-3
I0
I0
I0
I0
I0
I0
I8
I0
I-8
I-1
I5
I1
I-5
I1
I0
I0
I-1
I5
tp155
a(I116
I-32
I15
I94
I35
I96
I-225
I-294
I-275
I-739
I134
I-30
I7
I95
I29
I86
I-1645
I3
I23
tp156
aa(lp157
F1611228974.932635
aI-80
aI20
aI462
a(I0
I5
I-6
I-1
I1
I1
I2
I-1
I0
I0
I4
I5
I0
I-8
I1
I0
I-5
I2
I0
I-4
I0
I0
tp158
a(I115
I-32
I13
I94
I35
I96
I-225
I-295
I-275
I-740
I133
I-31
I6
I94
I27
I85
I-1646
I3
I21
tp159
aa(lp160
F1611228974.942697
aI-80
aI21
aI462
a(I0
I6
I3
I-5
I0
I6
I-3
I-2
I0
I1
I4
I2
I-6
I0
I5
I-4
I-8
I-6
I-1
I4
I3
I6
tp161
a(I115
I-32
I14
I96
I35
I95
I-223
I-294
I-276
I-739
I132
I-31
I7
I93
I29
I85
I-1646
I5
I21
tp162
aa(lp163
F1611228974.952506
aI-80
aI22
aI462
a(I-5
I2
I0
I-5
I-6
I3
I2
I2
I-4
I-5
I3
I4
I0
I0
I0
I6
I0
I-4
I3
I5
I-1
I2
tp164
a(I116
I-33
I12
I94
I35
I94
I-225
I-294
I-276
I-739
I132
I-30
I8
I93
I29
I86
I-1646
I4
I22
tp165
aa(lp166
F1611228974.962598
aI-80
aI22
aI463
a(I0
I3
I5
I1
I6
I7
I2
I-2
I5
I7
I-3
I0
I1
I-1
I5
I6
I-1
I0
I0
I1
I-2
I7
tp167
a(I114
I-32
I15
I95
I33
I94
I-225
I-295
I-276
I-739
I132
I-30
I6
I94
I29
I87
I-1646
I3
I21
tp168
aa(lp169
F1611228974.972684
aI-80
aI21
aI462
a(I5
I0
I0
I4
I3
I-1
I-7
I0
I0
I0
I-4
I4
I3
I-1
I0
I5
I-5
I1
I-1
I0
I-1
I-2
tp170
a(I115
I-32
I11
I94
I35
I96
I-225
I-294
I-276
I-739
I133
I-31
I7
I93
I29
I86
I-1647
I4
I22
tp171
aa(lp172
F1611228974.982472
aI-80
aI21
aI462
a(I-3
I-3
I0
I-7
I-2
I9
I14
I0
I1
I9
I7
I3
I0
I4
I12
I10
I-8
I3
I5
I3
I0
I2
tp173
a(I114
I-32
I13
I95
I34
I95
I-224
I-294
I-276
I-739
I133
I-30
I7
I95
I29
I86
I-1645
I4
I21
tp174
aa(lp175
F1611228974.992531
aI-79
aI23
aI462
a(I1
I3
I3
I-2
I5
I2
I5
I1
I-2
I7
I3
I1
I0
I2
I7
I7
I0
I6
I11
I4
I-1
I2
tp176
a(I115
I-32
I11
I95
I34
I95
I-225
I-295
I-276
I-739
I134
I-30
I8
I94
I30
I87
I-1646
I3
I21
tp177
aa(lp178
F1611228975.002636
aI-79
aI20
aI462
a(I2
I-1
I-1
I8
I1
I-2
I-1
I2
I3
I-4
I-6
I7
I2
I0
I-6
I7
I0
I-9
I-3
I6
I0
I5
tp179
a(I115
I-32
I13
I94
I34
I95
I-225
I-295
I-275
I-739
I134
I-30
I7
I95
I30
I85
I-1646
I3
I21
tp180
aa(lp181
F1611228975.012597
aI-80
aI21
aI462
a(I-1
I2
I-2
I2
I-3
I3
I0
I1
I-6
I11
I5
I-2
I6
I5
I3
I-1
I-7
I0
I7
I2
I0
I4
tp182
a(I116
I-32
I12
I96
I34
I96
I-225
I-294
I-275
I-740
I133
I-30
I7
I94
I28
I86
I-1646
I5
I22
tp183
aa(lp184
F1611228975.02263
aI-79
aI19
aI462
a(I6
I-4
I-2
I2
I2
I-1
I4
I7
I0
I0
I-3
I4
I4
I-7
I-7
I3
I-1
I-1
I-5
I-2
I0
I1
tp185
a(I116
I-32
I12
I94
I34
I94
I-225
I-293
I-275
I-740
I133
I-30
I7
I94
I29
I86
I-1646
I2
I22
tp186
aa(lp187
F1611228975.032669
aI-80
aI19
aI462
a(I0
I-5
I0
I5
I-4
I-8
I-2
I9
I7
I0
I1
I0
I0
I0
I-4
I0
I1
I-1
I-1
I0
I-4
I0
tp188
a(I115
I-31
I13
I94
I35
I95
I-225
I-294
I-275
I-739
I133
I-30
I8
I94
I29
I87
I-1646
I4
I21
tp189
aa(lp190
F1611228975.042536
aI-79
aI20
aI463
a(I2
I1
I-3
I-2
I0
I-1
I-4
I-2
I0
I0
I2
I-5
I1
I-2
I-1
I-1
I0
I-4
I1
I0
I0
I-4
tp191
a(I116
I-32
I12
I95
I35
I96
I-225
I-295
I-276
I-740
I133
I-30
I7
I93
I28
I87
I-1646
I4
I22
tp192
aa(lp193
F1611228975.05256
aI-79
aI19
aI463
a(I6
I1
I1
I-1
I1
I0
I-1
I0
I-3
I-2
I1
I-2
I0
I0
I4
I5
I0
I-3
I-3
I1
I3
I-2
tp194
a(I114
I-31
I13
I95
I35
I96
I-225
I-294
I-276
I-739
I132
I-29
I7
I93
I28
I88
I-1646
I2
I23
tp195
aa(lp196
F1611228975.062721
aI-79
aI18
aI463
a(I0
I1
I1
I10
I5
I-10
I0
I2
I0
I-7
I-1
I6
I2
I-3
I-7
I8
I10
I0
I-7
I0
I0
I2
tp197
a(I116
I-32
I14
I94
I33
I96
I-225
I-294
I-275
I-740
I134
I-30
I8
I94
I28
I85
I-1646
I3
I22
tp198
aa(lp199
F1611228975.072567
aI-80
aI18
aI462
a(I2
I-2
I-7
I-3
I-3
I-15
I-5
I0
I-2
I-6
I0
I-3
I-5
I-1
I0
I0
I-4
I0
I-2
I1
I-4
I-6
tp200
a(I115
I-32
I13
I93
I34
I95
I-223
I-294
I-275
I-739
I132
I-30
I8
I93
I29
I86
I-1647
I3
I22
tp201
aa(lp202
F1611228975.082502
aI-80
aI18
aI463
a(I-1
I0
I0
I0
I-2
I-4
I0
I1
I-9
I-2
I11
I4
I-8
I-5
I-2
I-1
I-8
I-8
I-2
I4
I-2
I-2
tp203
a(I115
I-31
I13
I95
I34
I95
I-224
I-295
I-275
I-738
I133
I-31
I6
I93
I28
I85
I-1646
I3
I21
tp204
aa(lp205
F1611228975.0928
aI-80
aI19
aI462
a(I-3
I1
I-3
I0
I-1
I-2
I6
I0
I-5
I1
I1
I2
I-2
I-4
I1
I0
I-10
I1
I-3
I4
I0
I-5
tp206
a(I115
I-31
I12
I93
I35
I96
I-225
I-294
I-275
I-739
I132
I-29
I7
I94
I28
I86
I-1645
I4
I21
tp207
aa(lp208
F1611228975.10252
aI-80
aI20
aI462
a(I2
I-1
I-2
I-3
I-1
I-5
I0
I2
I-4
I-1
I0
I-6
I-5
I-2
I-1
I-7
I-11
I-5
I3
I4
I-1
I-7
tp209
a(I115
I-32
I12
I95
I34
I94
I-224
I-294
I-276
I-739
I133
I-30
I9
I95
I28
I86
I-1646
I3
I22
tp210
aa(lp211
F1611228975.112459
aI-80
aI21
aI462
a(I1
I4
I-8
I-8
I-5
I-3
I3
I-9
I-12
I-1
I4
I-4
I-6
I-1
I0
I0
I-2
I-7
I3
I4
I5
I-3
tp212
a(I115
I-32
I14
I95
I34
I95
I-225
I-294
I-276
I-739
I132
I-29
I7
I95
I29
I86
I-1646
I4
I22
tp213
aa(lp214
F1611228975.122657
aI-79
aI21
aI463
a(I-3
I0
I4
I-1
I-5
I1
I5
I-1
I-8
I8
I9
I0
I3
I3
I0
I3
I-1
I-1
I-2
I7
I6
I-4
tp215
a(I116
I-32
I13
I94
I35
I96
I-224
I-295
I-277
I-739
I133
I-30
I7
I94
I29
I85
I-1646
I3
I21
tp216
aa(lp217
F1611228975.132568
aI-79
aI20
aI463
a(I2
I-5
I-3
I-8
I-2
I4
I6
I-12
I-3
I10
I3
I-7
I-6
I3
I11
I7
I-13
I-2
I4
I1
I-9
I0
tp218
a(I115
I-32
I13
I94
I34
I95
I-225
I-293
I-276
I-739
I133
I-31
I8
I94
I27
I86
I-1647
I4
I21
tp219
aa(lp220
F1611228975.142749
aI-79
aI19
aI463
a(I5
I5
I2
I3
I0
I3
I6
I4
I4
I0
I0
I6
I1
I-4
I4
I5
I-4
I-5
I-2
I2
I-2
I2
tp221
a(I116
I-32
I13
I95
I34
I95
I-225
I-294
I-275
I-739
I133
I-30
I7
I94
I29
I86
I-1647
I4
I21
tp222
aa(lp223
F1611228975.152559
aI-80
aI19
aI463
a(I0
I-2
I-1
I-7
I-7
I0
I-2
I-6
I-7
I2
I-2
I-5
I-5
I-1
I9
I0
I-8
I5
I16
I2
I0
I3
tp224
a(I115
I-31
I15
I95
I35
I96
I-225
I-294
I-275
I-740
I133
I-31
I8
I93
I30
I86
I-1646
I3
I21
tp225
aa(lp226
F1611228975.162638
aI-80
aI21
aI462
a(I3
I-4
I0
I-1
I-6
I-5
I0
I0
I-3
I-3
I4
I1
I5
I-5
I5
I13
I-1
I-3
I-5
I2
I7
I-3
tp227
a(I115
I-32
I14
I94
I32
I95
I-225
I-294
I-275
I-740
I133
I-30
I8
I94
I29
I86
I-1645
I4
I21
tp228
aa(lp229
F1611228975.17245
aI-80
aI19
aI463
a(I-9
I-4
I3
I-5
I-16
I5
I8
I-4
I1
I-1
I-1
I3
I-5
I2
I2
I-1
I-1
I3
I-1
I-1
I2
I-2
tp230
a(I115
I-31
I13
I95
I34
I96
I-226
I-294
I-276
I-740
I132
I-30
I7
I94
I29
I87
I-1645
I4
I22
tp231
aa(lp232
F1611228975.182543
aI-80
aI20
aI462
a(I2
I3
I-7
I-8
I9
I2
I-7
I-7
I2
I-2
I2
I-9
I-4
I4
I7
I-8
I-2
I-3
I0
I4
I-1
I-6
tp233
a(I115
I-32
I14
I94
I35
I96
I-225
I-294
I-276
I-740
I134
I-30
I8
I94
I30
I87
I-1646
I2
I21
tp234
aa(lp235
F1611228975.192319
aI-80
aI20
aI463
a(I4
I9
I-7
I0
I-2
I-10
I2
I4
I0
I0
I7
I0
I5
I5
I0
I-1
I8
I7
I-4
I1
I4
I0
tp236
a(I115
I-32
I14
I95
I34
I96
I-224
I-294
I-276
I-739
I132
I-29
I6
I93
I30
I86
I-1648
I4
I22
tp237
aa(lp238
F1611228975.202249
aI-79
aI20
aI462
a(I4
I-5
I0
I10
I-5
I-8
I0
I10
I0
I3
I4
I-2
I-2
I0
I1
I-4
I-1
I-1
I0
I7
I6
I-3
tp239
a(I115
I-32
I13
I94
I35
I96
I-225
I-295
I-276
I-739
I134
I-30
I6
I94
I28
I86
I-1647
I3
I22
tp240
aa(lp241
F1611228975.21287
aI-79
aI21
aI463
a(I2
I5
I0
I0
I-13
I0
I7
I6
I-13
I1
I11
I3
I-2
I3
I2
I5
I8
I0
I-2
I8
I0
I-4
tp242
a(I115
I-32
I15
I95
I34
I95
I-224
I-294
I-276
I-739
I133
I-31
I6
I94
I28
I85
I-1648
I2
I22
tp243
aa(lp244
F1611228975.222427
aI-79
aI20
aI462
a(I1
I-1
I-1
I8
I-3
I-6
I-1
I-1
I5
I8
I-4
I7
I12
I1
I-9
I3
I6
I1
I0
I0
I2
I0
tp245
a(I115
I-33
I13
I95
I35
I95
I-225
I-294
I-275
I-739
I132
I-29
I7
I93
I29
I86
I-1645
I4
I21
tp246
aa(lp247
F1611228975.232294
aI-80
aI18
aI462
a(I0
I-7
I0
I-1
I0
I2
I-1
I-11
I-6
I8
I4
I-2
I-4
I-1
I2
I2
I-5
I-5
I1
I2
I-3
I0
tp248
a(I114
I-32
I12
I94
I33
I96
I-224
I-294
I-275
I-740
I133
I-29
I6
I94
I29
I87
I-1646
I3
I22
tp249
aa(lp250
F1611228975.242512
aI-80
aI18
aI463
a(I6
I-3
I3
I6
I3
I6
I3
I-1
I4
I0
I3
I6
I7
I1
I0
I0
I3
I5
I5
I-2
I-1
I12
tp251
a(I115
I-32
I13
I94
I35
I95
I-224
I-295
I-276
I-739
I132
I-30
I6
I94
I28
I85
I-1647
I3
I22
tp252
aa(lp253
F1611228975.252388
aI-80
aI20
aI463
a(I7
I-2
I-1
I6
I3
I-4
I0
I4
I5
I5
I-4
I0
I-1
I-1
I0
I0
I-3
I3
I8
I1
I5
I7
tp254
a(I115
I-31
I12
I95
I35
I96
I-225
I-294
I-275
I-740
I133
I-29
I7
I94
I30
I85
I-1646
I4
I21
tp255
aa(lp256
F1611228975.262336
aI-80
aI21
aI462
a(I-9
I-8
I-3
I1
I-7
I-7
I6
I3
I-2
I0
I0
I2
I-4
I-8
I5
I8
I-7
I-6
I6
I-4
I-8
I-2
tp257
a(I115
I-31
I12
I94
I33
I96
I-225
I-295
I-276
I-740
I133
I-31
I6
I94
I28
I87
I-1647
I4
I22
tp258
aa(lp259
F1611228975.272747
aI-80
aI19
aI463
a(I2
I-1
I-6
I-3
I1
I5
I-3
I-4
I6
I10
I-9
I-3
I-7
I-4
I-2
I-3
I-2
I3
I2
I2
I-1
I-5
tp260
a(I116
I-31
I12
I95
I34
I95
I-225
I-295
I-276
I-739
I132
I-31
I8
I94
I30
I85
I-1645
I5
I22
tp261
aa(lp262
F1611228975.282574
aI-80
aI17
aI463
a(I-9
I6
I1
I-2
I-11
I0
I2
I-9
I-7
I2
I2
I-4
I-5
I5
I5
I-6
I-6
I4
I7
I-7
I-5
I5
tp263
a(I115
I-32
I14
I95
I36
I94
I-224
I-295
I-274
I-739
I133
I-31
I6
I95
I29
I87
I-1645
I4
I20
tp264
aa(lp265
F1611228975.292619
aI-80
aI19
aI463
a(I5
I-1
I-11
I-4
I9
I-1
I-7
I4
I11
I4
I-1
I8
I5
I2
I-1
I4
I7
I4
I3
I5
I6
I0
tp266
a(I114
I-33
I12
I94
I33
I96
I-225
I-295
I-275
I-740
I132
I-30
I8
I93
I28
I85
I-1645
I4
I23
tp267
aa(lp268
F1611228975.302871
aI-80
aI19
aI462
a(I0
I6
I3
I-1
I-2
I-3
I2
I0
I1
I-4
I0
I8
I-2
I-4
I2
I8
I1
I4
I-2
I5
I11
I0
tp269
a(I116
I-32
I14
I94
I35
I95
I-225
I-294
I-275
I-740
I133
I-31
I8
I93
I29
I86
I-1647
I5
I21
tp270
aa(lp271
F1611228975.312566
aI-80
aI20
aI462
a(I-5
I2
I-6
I-8
I-2
I0
I5
I9
I-6
I-4
I6
I-2
I-3
I8
I5
I-7
I-3
I2
I-2
I-3
I-5
I-3
tp272
a(I115
I-30
I14
I95
I34
I96
I-225
I-294
I-276
I-740
I134
I-30
I8
I94
I29
I87
I-1647
I2
I22
tp273
aa(lp274
F1611228975.322402
aI-80
aI19
aI463
a(I1
I-1
I-12
I-5
I0
I-10
I-2
I1
I5
I4
I4
I-14
I-3
I0
I-2
I-10
I0
I0
I3
I5
I-4
I-4
tp275
a(I115
I-31
I14
I95
I33
I95
I-225
I-294
I-276
I-739
I134
I-32
I7
I93
I30
I87
I-1646
I4
I20
tp276
aa(lp277
F1611228975.332675
aI-79
aI16
aI462
a(I3
I2
I-2
I-2
I-4
I7
I0
I-4
I-10
I-2
I9
I-2
I-2
I4
I4
I0
I3
I-4
I-1
I1
I2
I-4
tp278
a(I115
I-32
I12
I95
I34
I95
I-225
I-293
I-275
I-740
I132
I-30
I7
I93
I29
I86
I-1646
I4
I21
tp279
aa(lp280
F1611228975.342554
aI-80
aI18
aI462
a(I3
I2
I-6
I-1
I-2
I-8
I1
I4
I0
I4
I12
I0
I3
I-2
I3
I3
I-3
I-4
I3
I3
I-2
I-2
tp281
a(I116
I-31
I13
I95
I34
I95
I-224
I-295
I-276
I-738
I132
I-30
I7
I95
I28
I87
I-1646
I4
I22
tp282
aa(lp283
F1611228975.35241
aI-79
aI18
aI462
a(I3
I-1
I-7
I-6
I0
I6
I-5
I-7
I6
I5
I2
I-1
I-1
I1
I-2
I-9
I3
I-2
I-3
I2
I10
I-1
tp284
a(I116
I-31
I12
I95
I34
I95
I-225
I-295
I-276
I-740
I133
I-30
I7
I95
I30
I86
I-1647
I3
I21
tp285
aa(lp286
F1611228975.362557
aI-80
aI20
aI462
a(I-9
I-2
I3
I2
I1
I12
I5
I0
I-3
I1
I6
I-4
I-4
I4
I14
I-2
I-8
I4
I3
I-3
I0
I-2
tp287
a(I116
I-32
I12
I95
I33
I95
I-225
I-295
I-276
I-740
I134
I-29
I5
I94
I29
I86
I-1647
I3
I21
tp288
aa(lp289
F1611228975.372601
aI-80
aI19
aI463
a(I3
I-3
I0
I-1
I4
I-1
I0
I1
I2
I-9
I3
I4
I0
I0
I-4
I3
I4
I-1
I-8
I2
I7
I-1
tp290
a(I114
I-32
I13
I95
I33
I96
I-226
I-294
I-276
I-739
I133
I-32
I7
I93
I29
I85
I-1645
I4
I21
tp291
aa(lp292
F1611228975.382483
aI-80
aI20
aI463
a(I-1
I4
I6
I3
I5
I-3
I-4
I-4
I3
I4
I10
I-4
I-1
I7
I-2
I-1
I0
I1
I6
I5
I-8
I2
tp293
a(I116
I-31
I12
I94
I34
I95
I-225
I-295
I-277
I-739
I133
I-29
I8
I93
I30
I87
I-1647
I4
I22
tp294
aa(lp295
F1611228975.392525
aI-80
aI21
aI462
a(I15
I-2
I-1
I11
I6
I5
I7
I3
I7
I14
I-1
I4
I6
I0
I5
I0
I2
I3
I1
I0
I-2
I3
tp296
a(I115
I-30
I14
I95
I35
I95
I-225
I-294
I-276
I-739
I134
I-30
I8
I95
I31
I87
I-1646
I4
I22
tp297
aa(lp298
F1611228975.402742
aI-80
aI22
aI463
a(I-6
I2
I2
I4
I-4
I4
I0
I0
I1
I1
I0
I9
I7
I-2
I0
I4
I-1
I-2
I0
I-3
I2
I3
tp299
a(I115
I-32
I13
I95
I33
I96
I-225
I-295
I-275
I-740
I133
I-30
I7
I94
I30
I87
I-1646
I2
I21
tp300
aa(lp301
F1611228975.412548
aI-80
aI21
aI462
a(I3
I5
I1
I-1
I3
I0
I-14
I-4
I4
I-5
I-9
I0
I7
I2
I3
I-8
I-6
I10
I2
I-7
I0
I3
tp302
a(I115
I-33
I12
I95
I35
I95
I-225
I-295
I-276
I-740
I133
I-30
I8
I94
I28
I85
I-1644
I4
I22
tp303
aa(lp304
F1611228975.422445
aI-80
aI21
aI463
a(I5
I6
I-8
I-5
I7
I2
I2
I0
I5
I4
I5
I-9
I-7
I4
I11
I0
I-7
I0
I2
I2
I3
I-1
tp305
a(I115
I-32
I12
I95
I33
I96
I-226
I-294
I-275
I-740
I134
I-31
I8
I93
I30
I85
I-1647
I2
I21
tp306
aa(lp307
F1611228975.432607
aI-79
aI21
aI462
a(I-2
I4
I-4
I2
I-1
I-2
I7
I2
I-3
I2
I4
I0
I4
I-1
I-2
I6
I13
I4
I-6
I-3
I4
I1
tp308
a(I115
I-32
I13
I94
I34
I95
I-225
I-294
I-276
I-739
I132
I-30
I8
I93
I29
I86
I-1645
I4
I21
tp309
aa(lp310
F1611228975.442412
aI-80
aI21
aI462
a(I-1
I-2
I5
I4
I1
I2
I-2
I3
I0
I5
I0
I5
I4
I3
I-3
I0
I3
I-3
I-3
I6
I1
I-11
tp311
a(I116
I-32
I14
I95
I35
I95
I-224
I-295
I-275
I-740
I133
I-31
I8
I93
I30
I86
I-1645
I5
I21
tp312
aa(lp313
F1611228975.452647
aI-80
aI20
aI462
a(I6
I5
I-1
I-7
I3
I4
I7
I-3
I-6
I-4
I5
I-5
I0
I4
I-3
I4
I0
I1
I0
I1
I0
I-9
tp314
a(I116
I-32
I14
I95
I34
I95
I-225
I-295
I-277
I-740
I133
I-29
I8
I93
I31
I85
I-1645
I3
I22
tp315
aa(lp316
F1611228975.462775
aI-80
aI19
aI462
a(I-8
I-5
I-10
I-3
I-1
I-8
I0
I-2
I-1
I0
I0
I-1
I0
I-4
I-11
I-2
I-2
I-7
I-3
I4
I-2
I-8
tp317
a(I115
I-32
I14
I94
I34
I94
I-226
I-294
I-275
I-739
I133
I-30
I8
I94
I29
I85
I-1646
I3
I22
tp318
aa(lp319
F1611228975.472465
aI-80
aI19
aI462
a(I1
I1
I-3
I-2
I-3
I1
I3
I0
I-6
I4
I0
I-6
I3
I8
I1
I0
I-3
I0
I0
I-5
I-2
I7
tp320
a(I116
I-32
I13
I93
I35
I95
I-225
I-295
I-274
I-739
I134
I-30
I8
I94
I29
I87
I-1647
I3
I21
tp321
aa(lp322
F1611228975.482446
aI-80
aI20
aI462
a(I0
I-9
I0
I6
I-7
I-13
I2
I5
I0
I-1
I4
I9
I6
I-8
I-8
I6
I4
I-1
I-1
I0
I5
I6
tp323
a(I115
I-32
I13
I94
I35
I96
I-226
I-295
I-275
I-740
I133
I-31
I6
I94
I28
I87
I-1647
I3
I21
tp324
aa(lp325
F1611228975.492693
aI-80
aI20
aI463
a(I-2
I-6
I5
I0
I-6
I-3
I3
I0
I1
I9
I-1
I-7
I-1
I1
I-3
I-7
I-5
I-5
I0
I-3
I0
I4
tp326
a(I115
I-30
I13
I95
I34
I96
I-225
I-293
I-274
I-739
I134
I-30
I7
I94
I29
I85
I-1647
I2
I22
tp327
aa(lp328
F1611228975.502525
aI-80
aI20
aI462
a(I-6
I-2
I-1
I1
I-10
I6
I4
I0
I1
I5
I4
I9
I1
I-4
I10
I7
I-3
I-4
I0
I-1
I0
I3
tp329
a(I115
I-32
I14
I96
I34
I96
I-225
I-295
I-275
I-739
I133
I-31
I8
I94
I29
I87
I-1648
I4
I22
tp330
aa(lp331
F1611228975.512432
aI-80
aI19
aI463
a(I-4
I3
I10
I2
I3
I1
I-6
I2
I4
I-2
I0
I2
I0
I-1
I8
I-1
I2
I6
I7
I4
I-3
I-1
tp332
a(I115
I-32
I14
I96
I33
I95
I-225
I-293
I-276
I-739
I133
I-30
I7
I93
I31
I86
I-1646
I4
I22
tp333
aa(lp334
F1611228975.522676
aI-80
aI19
aI463
a(I7
I4
I-5
I-6
I5
I0
I-10
I-8
I2
I0
I7
I1
I-1
I0
I8
I2
I-7
I2
I2
I0
I-2
I-1
tp335
a(I116
I-32
I12
I95
I34
I95
I-225
I-294
I-276
I-738
I134
I-29
I7
I96
I29
I85
I-1645
I4
I22
tp336
aa(lp337
F1611228975.532537
aI-80
aI18
aI462
a(I-3
I2
I3
I-3
I0
I2
I2
I4
I4
I-4
I7
I3
I0
I0
I2
I-4
I3
I6
I0
I4
I6
I-1
tp338
a(I116
I-32
I12
I95
I33
I96
I-225
I-293
I-276
I-740
I132
I-30
I7
I94
I29
I86
I-1647
I4
I20
tp339
aa(lp340
F1611228975.542375
aI-79
aI20
aI462
a(I0
I4
I-3
I-1
I-1
I-1
I-3
I0
I2
I6
I3
I-4
I2
I4
I-5
I-6
I5
I6
I-4
I-5
I-2
I-4
tp341
a(I115
I-32
I14
I95
I33
I95
I-225
I-294
I-275
I-740
I133
I-30
I8
I94
I28
I87
I-1646
I3
I22
tp342
aa(lp343
F1611228975.552628
aI-79
aI21
aI462
a(I-1
I-3
I-2
I4
I4
I-10
I-2
I1
I-5
I-5
I2
I0
I3
I-5
I-5
I5
I-6
I-7
I3
I4
I-8
I-3
tp344
a(I115
I-33
I13
I95
I34
I96
I-224
I-296
I-276
I-740
I133
I-30
I7
I94
I28
I86
I-1647
I3
I22
tp345
aa(lp346
F1611228975.562517
aI-80
aI20
aI463
a(I-5
I-4
I-1
I-1
I-8
I-1
I-4
I-4
I-4
I-9
I-9
I-2
I1
I-2
I-5
I1
I-3
I-2
I-8
I-8
I5
I11
tp347
a(I116
I-33
I14
I94
I35
I95
I-225
I-294
I-276
I-739
I133
I-32
I6
I93
I29
I86
I-1646
I3
I23
tp348
aa(lp349
F1611228975.572451
aI-80
aI21
aI462
a(I-11
I-13
I7
I2
I-9
I-8
I0
I0
I0
I-6
I0
I3
I-1
I-4
I7
I7
I-6
I-5
I0
I3
I-2
I-9
tp350
a(I115
I-32
I12
I95
I35
I94
I-225
I-294
I-276
I-740
I133
I-31
I7
I93
I28
I85
I-1645
I5
I21
tp351
aa(lp352
F1611228975.583363
aI-80
aI20
aI462
a(I-2
I6
I-6
I-11
I-1
I11
I-2
I-3
I0
I4
I-1
I-7
I0
I1
I4
I-6
I-6
I2
I-5
I-6
I3
I0
tp353
a(I116
I-31
I12
I95
I34
I94
I-225
I-294
I-276
I-739
I134
I-31
I8
I94
I29
I85
I-1645
I4
I21
tp354
aa(lp355
F1611228975.592561
aI-79
aI18
aI462
a(I-4
I-3
I2
I3
I3
I-5
I-9
I8
I6
I-6
I-7
I3
I5
I-5
I0
I-4
I2
I3
I0
I0
I4
I-3
tp356
a(I116
I-31
I13
I94
I34
I95
I-224
I-294
I-274
I-739
I134
I-31
I8
I94
I29
I87
I-1647
I3
I21
tp357
aa(lp358
F1611228975.602421
aI-79
aI18
aI462
a(I4
I-2
I-9
I-7
I8
I0
I-7
I-10
I0
I3
I2
I-2
I-4
I3
I4
I-4
I1
I3
I5
I0
I4
I4
tp359
a(I115
I-32
I12
I94
I35
I95
I-225
I-294
I-276
I-739
I132
I-30
I8
I93
I30
I86
I-1645
I2
I21
tp360
aa(lp361
F1611228975.61257
aI-79
aI20
aI463
a(I-1
I-1
I-2
I-3
I0
I-4
I3
I3
I-2
I-7
I9
I11
I0
I-5
I4
I6
I7
I-1
I-4
I1
I6
I-4
tp362
a(I115
I-32
I12
I94
I34
I95
I-224
I-294
I-276
I-740
I132
I-29
I6
I93
I28
I86
I-1645
I4
I22
tp363
aa(lp364
F1611228975.622485
aI-80
aI20
aI462
a(I-8
I2
I1
I0
I-7
I2
I2
I5
I-5
I-2
I6
I6
I-2
I3
I3
I-2
I2
I-1
I-1
I2
I4
I-5
tp365
a(I115
I-32
I12
I95
I34
I95
I-224
I-294
I-276
I-740
I132
I-30
I8
I93
I29
I85
I-1646
I5
I22
tp366
aa(lp367
F1611228975.632447
aI-80
aI21
aI462
a(I-3
I8
I1
I-1
I1
I-1
I2
I3
I-4
I1
I6
I-5
I-6
I4
I-7
I1
I3
I-6
I-6
I2
I1
I-8
tp368
a(I115
I-32
I12
I94
I33
I95
I-224
I-294
I-275
I-740
I133
I-30
I6
I94
I29
I85
I-1645
I4
I22
tp369
aa(lp370
F1611228975.643225
aI-80
aI20
aI463
a(I-2
I-1
I-5
I-1
I-3
I-8
I-8
I-2
I-6
I-2
I-5
I-3
I5
I1
I-8
I-2
I3
I1
I0
I-2
I3
I2
tp371
a(I115
I-31
I12
I95
I34
I95
I-225
I-295
I-276
I-739
I132
I-30
I8
I95
I28
I86
I-1645
I3
I20
tp372
aa(lp373
F1611228975.652604
aI-80
aI19
aI462
a(I5
I-2
I-5
I0
I-3
I-4
I4
I4
I-2
I2
I3
I-3
I-1
I-6
I0
I1
I-5
I0
I11
I3
I-11
I0
tp374
a(I115
I-32
I13
I94
I34
I96
I-224
I-294
I-275
I-740
I132
I-31
I7
I93
I29
I87
I-1646
I3
I23
tp375
aa(lp376
F1611228975.662436
aI-80
aI19
aI463
a(I7
I0
I-1
I0
I0
I1
I-2
I-5
I3
I0
I-6
I-2
I5
I2
I1
I1
I0
I1
I0
I1
I2
I0
tp377
a(I115
I-31
I13
I96
I35
I94
I-225
I-294
I-274
I-739
I134
I-29
I9
I93
I30
I85
I-1647
I2
I21
tp378
aa(lp379
F1611228975.673162
aI-80
aI20
aI462
a(I-4
I0
I-1
I-1
I0
I9
I2
I-1
I0
I9
I-8
I-6
I-1
I3
I4
I4
I0
I3
I0
I0
I3
I4
tp380
a(I116
I-31
I13
I94
I34
I95
I-225
I-295
I-275
I-740
I133
I-31
I7
I94
I28
I87
I-1646
I3
I21
tp381
aa(lp382
F1611228975.682398
aI-80
aI21
aI462
a(I-4
I6
I0
I-2
I3
I3
I0
I3
I0
I-2
I5
I8
I-7
I-5
I6
I5
I3
I0
I1
I0
I1
I-7
tp383
a(I115
I-32
I14
I95
I35
I95
I-225
I-294
I-276
I-739
I133
I-30
I6
I94
I29
I86
I-1645
I4
I22
tp384
aa(lp385
F1611228975.692294
aI-80
aI21
aI463
a(I-1
I1
I-8
I-5
I0
I-12
I3
I8
I2
I-3
I7
I-2
I0
I0
I-3
I1
I7
I0
I-2
I3
I4
I-4
tp386
a(I116
I-31
I14
I95
I35
I96
I-225
I-295
I-276
I-739
I132
I-29
I8
I94
I28
I87
I-1646
I2
I21
tp387
aa(lp388
F1611228975.702691
aI-80
aI19
aI462
a(I1
I-2
I4
I7
I-1
I-7
I3
I-1
I0
I5
I-2
I-2
I4
I0
I-7
I-2
I-2
I4
I-6
I-1
I0
I-2
tp389
a(I115
I-32
I12
I93
I35
I96
I-224
I-294
I-276
I-739
I133
I-29
I7
I95
I28
I86
I-1646
I3
I21
tp390
aa(lp391
F1611228975.712556
aI-80
aI21
aI462
a(I6
I-2
I-1
I4
I6
I3
I1
I-3
I1
I9
I-3
I2
I3
I2
I4
I6
I-4
I-2
I7
I7
I0
I5
tp392
a(I115
I-33
I13
I95
I33
I96
I-225
I-293
I-276
I-739
I132
I-30
I7
I93
I29
I86
I-1645
I3
I22
tp393
aa(lp394
F1611228975.722556
aI-80
aI22
aI463
a(I4
I2
I-2
I-7
I0
I5
I2
I-5
I-4
I0
I0
I5
I2
I0
I1
I0
I-7
I-6
I-1
I-7
I-3
I3
tp395
a(I116
I-31
I13
I95
I33
I96
I-224
I-294
I-276
I-739
I133
I-30
I8
I94
I29
I85
I-1646
I3
I22
tp396
aa(lp397
F1611228975.732468
aI-79
aI21
aI462
a(I-4
I0
I1
I0
I-1
I2
I0
I0
I0
I6
I0
I4
I-2
I2
I7
I-3
I-4
I3
I1
I-3
I4
I0
tp398
a(I116
I-32
I12
I96
I35
I94
I-225
I-294
I-275
I-740
I132
I-30
I9
I94
I29
I85
I-1645
I4
I21
tp399
aa(lp400
F1611228975.742814
aI-80
aI18
aI463
a(I-2
I-2
I1
I-5
I-1
I4
I0
I0
I-3
I3
I0
I-3
I-11
I-10
I-5
I0
I-5
I-11
I-7
I0
I-1
I-7
tp401
a(I115
I-32
I14
I93
I34
I95
I-224
I-294
I-276
I-740
I133
I-30
I8
I94
I30
I86
I-1645
I4
I23
tp402
aa(lp403
F1611228975.752535
aI-79
aI18
aI462
a(I-1
I0
I-5
I-5
I0
I-13
I-1
I-2
I-3
I-7
I0
I0
I-2
I-3
I-2
I-1
I4
I2
I-7
I-1
I-2
I-6
tp404
a(I114
I-31
I14
I94
I33
I95
I-225
I-294
I-276
I-739
I132
I-30
I8
I93
I29
I85
I-1647
I4
I22
tp405
aa(lp406
F1611228975.762544
aI-80
aI20
aI462
a(I4
I-6
I-1
I3
I-2
I-11
I1
I1
I-3
I3
I0
I-3
I5
I4
I-6
I0
I2
I2
I0
I-4
I0
I5
tp407
a(I115
I-32
I14
I94
I34
I96
I-225
I-295
I-275
I-740
I132
I-30
I8
I93
I29
I86
I-1645
I4
I21
tp408
aa(lp409
F1611228975.77286
aI-80
aI20
aI462
a(I0
I-2
I5
I6
I-8
I0
I9
I4
I1
I3
I4
I10
I6
I-2
I-1
I13
I1
I-9
I2
I12
I0
I-3
tp410
a(I115
I-32
I14
I95
I34
I94
I-225
I-294
I-275
I-739
I133
I-31
I7
I94
I30
I87
I-1647
I3
I23
tp411
aa(lp412
F1611228975.782512
aI-80
aI19
aI462
a(I-2
I3
I6
I-8
I-6
I7
I-3
I-2
I5
I6
I3
I6
I-5
I0
I9
I0
I-8
I3
I4
I-3
I0
I5
tp413
a(I116
I-32
I12
I95
I35
I95
I-225
I-294
I-275
I-739
I132
I-30
I8
I94
I29
I86
I-1647
I4
I22
tp414
aa(lp415
F1611228975.792596
aI-80
aI19
aI463
a(I-3
I3
I0
I-5
I1
I0
I-2
I2
I1
I-1
I5
I-2
I-5
I2
I1
I-4
I-2
I3
I-5
I-8
I-4
I-2
tp416
a(I116
I-32
I14
I94
I34
I96
I-225
I-294
I-276
I-740
I132
I-30
I7
I94
I28
I86
I-1645
I4
I21
tp417
aa(lp418
F1611228975.802624
aI-80
aI19
aI462
a(I0
I0
I-2
I0
I12
I-1
I-6
I-2
I6
I0
I-1
I-9
I-3
I6
I1
I-4
I2
I0
I-1
I3
I-1
I-8
tp419
a(I115
I-31
I12
I94
I34
I95
I-225
I-294
I-275
I-739
I133
I-29
I7
I94
I28
I87
I-1645
I4
I20
tp420
aa(lp421
F1611228975.812379
aI-80
aI19
aI462
a(I8
I0
I-6
I-10
I5
I0
I-2
I-3
I-1
I-2
I3
I-7
I1
I4
I-3
I0
I4
I3
I1
I-4
I1
I0
tp422
a(I114
I-31
I12
I95
I34
I96
I-225
I-294
I-276
I-739
I133
I-31
I8
I94
I29
I86
I-1647
I4
I22
tp423
aa(lp424
F1611228975.822623
aI-79
aI20
aI462
a(I2
I-7
I-3
I11
I6
I-11
I-5
I0
I2
I3
I-5
I1
I8
I6
I2
I-4
I0
I8
I7
I-6
I-7
I3
tp425
a(I115
I-32
I14
I95
I35
I96
I-225
I-294
I-275
I-739
I133
I-31
I8
I94
I30
I86
I-1647
I4
I21
tp426
aa(lp427
F1611228975.832611
aI-80
aI21
aI462
a(I10
I-5
I-8
I2
I13
I3
I-6
I-1
I3
I10
I4
I-6
I7
I2
I3
I5
I3
I1
I3
I8
I3
I6
tp428
a(I114
I-31
I12
I94
I33
I95
I-225
I-294
I-276
I-740
I133
I-31
I8
I93
I28
I85
I-1645
I4
I22
tp429
aa(lp430
F1611228975.842335
aI-80
aI21
aI463
a(I0
I5
I6
I3
I-9
I6
I6
I-3
I5
I6
I-5
I3
I6
I0
I-1
I-4
I2
I3
I2
I-8
I1
I8
tp431
a(I116
I-32
I14
I95
I33
I95
I-225
I-295
I-275
I-740
I132
I-30
I7
I93
I28
I85
I-1645
I3
I21
tp432
aa(lp433
F1611228975.852521
aI-80
aI19
aI463
a(I-7
I-5
I0
I0
I1
I2
I-5
I4
I8
I-2
I2
I9
I4
I-2
I3
I-3
I-5
I0
I2
I-2
I1
I3
tp434
a(I116
I-32
I12
I94
I34
I95
I-225
I-295
I-276
I-740
I133
I-30
I8
I93
I29
I86
I-1645
I3
I22
tp435
aa(lp436
F1611228975.862581
aI-79
aI19
aI462
a(I5
I-1
I-5
I-4
I6
I0
I-7
I-1
I0
I-3
I0
I1
I-6
I4
I10
I4
I3
I2
I0
I6
I3
I-5
tp437
a(I116
I-32
I13
I95
I34
I96
I-225
I-296
I-275
I-739
I134
I-29
I8
I93
I29
I85
I-1645
I4
I21
tp438
aa(lp439
F1611228975.87231
aI-79
aI19
aI462
a(I-6
I0
I4
I1
I-1
I1
I2
I3
I0
I-1
I-1
I-2
I1
I6
I-1
I-1
I6
I4
I-5
I-4
I3
I-5
tp440
a(I114
I-32
I12
I94
I35
I96
I-225
I-295
I-275
I-740
I132
I-29
I8
I95
I30
I85
I-1646
I3
I21
tp441
aa(lp442
F1611228975.882441
aI-80
aI20
aI463
a(I-6
I-2
I-4
I0
I1
I-11
I-1
I0
I0
I0
I0
I-1
I0
I0
I-4
I-2
I-3
I-2
I5
I3
I-9
I-4
tp443
a(I115
I-32
I12
I94
I33
I95
I-225
I-294
I-276
I-740
I133
I-30
I7
I94
I29
I86
I-1646
I4
I22
tp444
aa(lp445
F1611228975.89262
aI-79
aI18
aI462
a(I6
I-2
I-9
I-1
I8
I3
I-3
I-3
I1
I1
I-4
I-7
I4
I5
I-4
I2
I3
I1
I3
I-4
I-3
I7
tp446
a(I115
I-32
I11
I94
I34
I95
I-224
I-295
I-275
I-739
I133
I-31
I7
I95
I28
I87
I-1647
I3
I21
tp447
aa(lp448
F1611228975.90234
aI-80
aI17
aI462
a(I-2
I-16
I-4
I13
I-6
I-17
I-4
I7
I7
I-7
I-6
I2
I13
I-2
I-7
I6
I0
I0
I-1
I-6
I1
I1
tp449
a(I115
I-31
I13
I95
I34
I95
I-225
I-293
I-275
I-739
I132
I-29
I8
I93
I28
I86
I-1644
I4
I21
tp450
aa(lp451
F1611228975.912519
aI-80
aI19
aI462
a(I-9
I-2
I0
I-6
I-4
I9
I0
I-13
I3
I15
I8
I-2
I-4
I9
I10
I-5
I-3
I5
I8
I5
I1
I11
tp452
a(I115
I-31
I13
I96
I34
I96
I-225
I-295
I-275
I-740
I133
I-30
I8
I94
I30
I85
I-1647
I4
I22
tp453
aa(lp454
F1611228975.922806
aI-80
aI20
aI462
a(I4
I0
I1
I1
I-5
I4
I9
I-1
I1
I-1
I1
I8
I5
I-7
I0
I0
I-4
I-5
I-4
I-7
I-1
I1
tp455
a(I116
I-32
I13
I95
I33
I95
I-225
I-294
I-276
I-739
I133
I-29
I8
I94
I30
I86
I-1646
I4
I21
tp456
aa(lp457
F1611228975.932567
aI-79
aI19
aI462
a(I-3
I0
I0
I0
I-1
I-2
I-11
I-1
I2
I-7
I-3
I5
I-9
I-4
I9
I2
I-3
I5
I-2
I-2
I-2
I-7
tp458
a(I115
I-32
I12
I95
I35
I96
I-225
I-295
I-275
I-739
I132
I-30
I7
I94
I27
I86
I-1645
I3
I21
tp459
aa(lp460
F1611228975.942575
aI-80
aI20
aI462
a(I6
I4
I-7
I-5
I4
I-4
I-2
I8
I6
I-1
I9
I8
I1
I0
I-3
I0
I4
I3
I0
I4
I6
I0
tp461
a(I114
I-31
I13
I95
I33
I96
I-226
I-295
I-276
I-739
I133
I-30
I7
I93
I30
I87
I-1645
I3
I23
tp462
aa(lp463
F1611228975.952845
aI-80
aI21
aI463
a(I-3
I0
I3
I0
I-1
I-1
I8
I5
I0
I-1
I5
I2
I4
I5
I-1
I3
I11
I11
I-1
I-6
I0
I0
tp464
a(I116
I-32
I13
I94
I34
I95
I-225
I-295
I-276
I-740
I134
I-31
I8
I94
I28
I86
I-1644
I4
I22
tp465
aa(lp466
F1611228975.962588
aI-80
aI21
aI462
a(I-5
I-8
I2
I8
I-1
I-10
I4
I13
I4
I-14
I-5
I3
I1
I2
I-4
I-1
I2
I-1
I-5
I-5
I4
I-2
tp467
a(I115
I-32
I12
I96
I34
I96
I-226
I-295
I-276
I-740
I133
I-29
I8
I94
I30
I86
I-1645
I3
I21
tp468
aa(lp469
F1611228975.973103
aI-80
aI18
aI462
a(I-10
I-4
I-3
I2
I-6
I-13
I0
I4
I-1
I-2
I0
I-4
I-3
I-1
I-4
I-3
I4
I-2
I-6
I0
I3
I-1
tp470
a(I115
I-31
I12
I95
I35
I94
I-224
I-295
I-275
I-739
I134
I-31
I7
I94
I28
I87
I-1645
I3
I22
tp471
aa(lp472
F1611228975.983454
aI-80
aI19
aI462
a(I-4
I-4
I-1
I5
I0
I0
I2
I3
I-2
I1
I0
I-3
I5
I-1
I-2
I1
I1
I0
I-2
I2
I1
I-6
tp473
a(I115
I-32
I13
I95
I34
I96
I-225
I-295
I-276
I-740
I132
I-31
I7
I94
I30
I85
I-1645
I4
I22
tp474
aa(lp475
F1611228975.992697
aI-80
aI21
aI462
a(I-2
I3
I2
I-1
I0
I-5
I4
I-3
I-11
I10
I17
I0
I4
I4
I6
I9
I-5
I-5
I4
I4
I-5
I0
tp476
a(I115
I-32
I13
I94
I35
I96
I-225
I-293
I-276
I-740
I133
I-31
I8
I94
I29
I87
I-1646
I4
I21
tp477
aa(lp478
F1611228976.002791
aI-79
aI21
aI462
a(I6
I0
I1
I3
I1
I-4
I0
I4
I3
I2
I0
I15
I8
I-4
I-7
I3
I5
I-1
I-6
I-1
I1
I-2
tp479
a(I115
I-32
I14
I95
I35
I95
I-225
I-294
I-276
I-740
I132
I-29
I7
I94
I29
I86
I-1647
I3
I22
tp480
aa(lp481
F1611228976.013284
aI-80
aI19
aI462
a(I-3
I-2
I2
I0
I0
I-7
I0
I-2
I0
I0
I0
I-2
I5
I-3
I-1
I0
I2
I-1
I-2
I0
I7
I5
tp482
a(I116
I-32
I12
I96
I35
I95
I-225
I-294
I-276
I-739
I133
I-31
I7
I93
I29
I85
I-1645
I4
I22
tp483
aa(lp484
F1611228976.022887
aI-80
aI19
aI463
a(I-4
I-2
I11
I7
I0
I-5
I11
I8
I-6
I-4
I10
I6
I0
I0
I6
I10
I-7
I-6
I0
I0
I-2
I-1
tp485
a(I116
I-32
I12
I95
I34
I95
I-225
I-294
I-275
I-740
I132
I-30
I7
I94
I28
I86
I-1644
I4
I21
tp486
aa(lp487
F1611228976.032515
aI-80
aI21
aI462
a(I3
I-2
I-3
I1
I-3
I-5
I2
I0
I-3
I4
I4
I0
I5
I8
I1
I3
I2
I3
I7
I1
I3
I4
tp488
a(I116
I-32
I14
I95
I34
I96
I-224
I-295
I-276
I-739
I132
I-30
I8
I95
I29
I86
I-1646
I5
I21
tp489
aa(lp490
F1611228976.043976
aI-79
aI21
aI462
a(I-3
I1
I6
I-3
I-4
I5
I5
I-1
I-1
I0
I-5
I8
I4
I3
I8
I7
I0
I-3
I-1
I8
I11
I-1
tp491
a(I115
I-32
I11
I96
I34
I95
I-225
I-294
I-276
I-739
I134
I-30
I7
I94
I30
I85
I-1646
I4
I22
tp492
aa(lp493
F1611228976.052664
aI-80
aI18
aI463
a(I-1
I6
I3
I-2
I-5
I-2
I0
I0
I4
I3
I0
I5
I3
I1
I-7
I5
I4
I4
I0
I-8
I-7
I6
tp494
a(I115
I-32
I12
I95
I34
I96
I-225
I-295
I-276
I-739
I133
I-30
I6
I93
I28
I87
I-1645
I4
I21
tp495
aa(lp496
F1611228976.062521
aI-80
aI18
aI462
a(I-1
I0
I0
I-2
I0
I2
I-4
I-2
I1
I1
I0
I3
I-2
I-5
I-4
I-1
I-8
I-6
I1
I4
I-4
I-2
tp497
a(I115
I-31
I12
I95
I33
I95
I-225
I-294
I-274
I-739
I132
I-31
I8
I95
I29
I87
I-1645
I4
I21
tp498
aa(lp499
F1611228976.072669
aI-80
aI19
aI462
a(I0
I3
I-2
I-5
I-9
I-5
I-4
I-2
I-4
I-9
I-4
I4
I5
I-1
I0
I2
I-6
I-4
I0
I-7
I0
I0
tp500
a(I115
I-32
I12
I94
I33
I94
I-225
I-295
I-275
I-739
I132
I-30
I7
I94
I28
I86
I-1644
I3
I22
tp501
aa(lp502
F1611228976.082877
aI-80
aI20
aI462
a(I3
I0
I0
I0
I8
I1
I0
I9
I11
I3
I0
I7
I1
I0
I0
I5
I-8
I0
I-2
I3
I1
I-4
tp503
a(I116
I-32
I13
I95
I34
I96
I-225
I-294
I-275
I-740
I133
I-30
I9
I93
I29
I86
I-1645
I4
I22
tp504
aa(lp505
F1611228976.09263
aI-80
aI20
aI462
a(I3
I11
I3
I-6
I-3
I4
I4
I-6
I-5
I0
I0
I-2
I-1
I-1
I8
I-2
I-1
I8
I7
I4
I-1
I0
tp506
a(I115
I-32
I14
I95
I35
I94
I-224
I-295
I-276
I-740
I133
I-29
I6
I95
I28
I86
I-1646
I3
I22
tp507
aa(lp508
F1611228976.102635
aI-79
aI19
aI462
a(I5
I2
I-1
I-2
I6
I10
I-8
I-6
I5
I15
I5
I-2
I0
I11
I13
I-4
I-5
I9
I10
I-3
I-15
I12
tp509
a(I115
I-32
I13
I95
I34
I95
I-225
I-295
I-276
I-740
I133
I-29
I7
I95
I28
I85
I-1645
I4
I21
tp510
aa(lp511
F1611228976.112748
aI-80
aI17
aI463
a(I7
I-4
I1
I2
I10
I2
I-5
I1
I4
I0
I-11
I4
I0
I-3
I2
I2
I-1
I3
I6
I3
I0
I-1
tp512
a(I115
I-31
I12
I95
I33
I96
I-225
I-294
I-276
I-738
I132
I-30
I6
I93
I29
I87
I-1645
I4
I21
tp513
aa(lp514
F1611228976.122609
aI-80
aI19
aI462
a(I0
I1
I-9
I-7
I3
I3
I2
I-3
I-2
I-1
I0
I0
I-5
I-2
I3
I0
I-4
I2
I1
I-5
I4
I3
tp515
a(I115
I-33
I13
I94
I35
I96
I-225
I-295
I-276
I-740
I134
I-29
I7
I94
I29
I86
I-1646
I4
I23
tp516
aa(lp517
F1611228976.132723
aI-80
aI20
aI462
a(I-8
I-5
I1
I2
I-3
I0
I-4
I0
I4
I0
I-6
I2
I-1
I2
I4
I-4
I-1
I3
I-6
I4
I7
I-4
tp518
a(I115
I-32
I13
I95
I34
I95
I-225
I-295
I-276
I-740
I133
I-31
I7
I95
I28
I86
I-1646
I3
I22
tp519
aa(lp520
F1611228976.142753
aI-80
aI18
aI462
a(I-8
I3
I-2
I-8
I-1
I3
I0
I-1
I-2
I3
I5
I-2
I-3
I2
I0
I-8
I-2
I-1
I0
I1
I2
I-4
tp521
a(I116
I-33
I13
I94
I33
I95
I-225
I-295
I-274
I-740
I134
I-30
I8
I94
I29
I87
I-1645
I3
I23
tp522
aa(lp523
F1611228976.152616
aI-80
aI20
aI462
a(I5
I7
I3
I-3
I4
I-1
I4
I6
I-4
I2
I10
I8
I-2
I0
I3
I12
I-2
I-8
I0
I10
I0
I-4
tp524
a(I115
I-31
I14
I94
I34
I95
I-225
I-294
I-276
I-739
I133
I-30
I7
I95
I30
I87
I-1646
I3
I20
tp525
aa(lp526
F1611228976.162756
aI-79
aI17
aI463
a(I3
I2
I1
I-1
I1
I-5
I4
I5
I-2
I-4
I5
I4
I2
I5
I-1
I1
I-3
I0
I0
I1
I-5
I-5
tp527
a(I115
I-31
I14
I95
I33
I96
I-225
I-295
I-277
I-739
I133
I-30
I7
I94
I29
I85
I-1644
I5
I22
tp528
aa(lp529
F1611228976.172962
aI-79
aI19
aI463
a(I7
I-1
I-7
I0
I3
I-3
I-7
I-9
I-5
I5
I2
I-6
I0
I8
I5
I-5
I-2
I-4
I2
I3
I-8
I-6
tp530
a(I115
I-31
I12
I95
I33
I95
I-225
I-293
I-276
I-740
I132
I-29
I8
I94
I29
I86
I-1646
I4
I21
tp531
aa(lp532
F1611228976.182593
aI-80
aI20
aI462
a(I9
I-1
I-2
I0
I-2
I-6
I6
I-3
I-3
I1
I3
I-6
I-5
I6
I-3
I0
I-6
I6
I0
I-1
I-5
I0
tp533
a(I114
I-32
I13
I95
I34
I95
I-225
I-295
I-275
I-739
I134
I-30
I8
I93
I29
I87
I-1645
I3
I23
tp534
aa(lp535
F1611228976.192712
aI-80
aI20
aI462
a(I4
I-2
I-4
I-4
I0
I-3
I0
I-7
I-1
I1
I0
I-12
I0
I2
I0
I-1
I0
I1
I-4
I-6
I0
I-5
tp536
a(I116
I-30
I14
I94
I35
I96
I-225
I-294
I-275
I-739
I133
I-30
I8
I94
I28
I86
I-1644
I4
I21
tp537
aa(lp538
F1611228976.202918
aI-80
aI21
aI462
a(I0
I-3
I-3
I2
I-4
I0
I-2
I-3
I0
I4
I-2
I-2
I3
I7
I-5
I-4
I3
I5
I-5
I-5
I9
I5
tp539
a(I114
I-31
I13
I93
I34
I95
I-225
I-295
I-275
I-740
I132
I-30
I6
I93
I30
I86
I-1647
I4
I21
tp540
aa(lp541
F1611228976.212653
aI-80
aI20
aI462
a(I-3
I-11
I7
I12
I-1
I-8
I0
I8
I0
I-2
I2
I2
I0
I-7
I-9
I-1
I0
I-9
I-8
I-4
I3
I-4
tp542
a(I116
I-32
I12
I95
I33
I96
I-225
I-294
I-275
I-739
I133
I-30
I6
I94
I29
I87
I-1646
I5
I22
tp543
aa(lp544
F1611228976.22264
aI-80
aI17
aI462
a(I2
I-2
I1
I2
I-1
I-5
I4
I-3
I-1
I-4
I-2
I2
I-1
I-6
I-3
I4
I5
I-5
I-1
I2
I5
I-7
tp545
a(I117
I-32
I12
I93
I34
I95
I-225
I-295
I-276
I-739
I133
I-31
I8
I93
I31
I85
I-1646
I3
I21
tp546
aa(lp547
F1611228976.232853
aI-80
aI20
aI462
a(I-4
I0
I1
I0
I1
I2
I2
I1
I1
I3
I4
I3
I7
I6
I0
I12
I4
I-1
I-3
I6
I2
I-1
tp548
a(I115
I-33
I13
I95
I32
I97
I-225
I-294
I-276
I-739
I134
I-30
I6
I94
I29
I86
I-1645
I3
I21
tp549
aa(lp550
F1611228976.242649
aI-80
aI20
aI463
a(I0
I1
I3
I0
I-9
I-1
I5
I3
I0
I11
I4
I2
I4
I6
I3
I0
I6
I-1
I7
I8
I6
I-6
tp551
a(I116
I-32
I12
I96
I35
I95
I-225
I-295
I-275
I-740
I133
I-30
I8
I94
I29
I86
I-1645
I5
I22
tp552
aa(lp553
F1611228976.252682
aI-80
aI20
aI462
a(I2
I0
I-3
I-5
I-4
I3
I4
I-3
I-5
I7
I2
I-2
I0
I-1
I0
I6
I-2
I-3
I3
I3
I-1
I-6
tp554
a(I116
I-33
I11
I93
I35
I96
I-225
I-293
I-275
I-740
I133
I-30
I8
I93
I29
I85
I-1645
I4
I22
tp555
aa(lp556
F1611228976.262708
aI-80
aI20
aI462
a(I0
I-3
I0
I0
I-4
I-5
I4
I0
I-1
I1
I2
I0
I3
I-4
I-2
I0
I4
I-5
I0
I2
I4
I0
tp557
a(I116
I-31
I13
I94
I34
I94
I-225
I-294
I-276
I-739
I133
I-30
I7
I94
I28
I86
I-1647
I4
I20
tp558
aa(lp559
F1611228976.272798
aI-80
aI18
aI461
a(I0
I-6
I2
I-1
I0
I6
I7
I2
I-6
I1
I5
I-3
I-6
I-3
I2
I3
I-9
I-12
I9
I5
I-6
I-8
tp560
a(I115
I-31
I12
I94
I35
I96
I-225
I-295
I-275
I-739
I132
I-30
I8
I93
I28
I85
I-1645
I3
I22
tp561
aa(lp562
F1611228976.282778
aI-80
aI19
aI462
a(I10
I-1
I3
I-5
I0
I-1
I0
I-5
I-1
I-1
I0
I2
I7
I-3
I0
I2
I1
I-5
I-5
I1
I0
I0
tp563
a(I115
I-32
I14
I95
I33
I96
I-224
I-295
I-275
I-740
I133
I-30
I8
I95
I30
I85
I-1646
I3
I21
tp564
aa(lp565
F1611228976.292892
aI-80
aI20
aI462
a(I-3
I1
I5
I2
I-9
I2
I5
I1
I-1
I1
I3
I2
I7
I4
I3
I-3
I-6
I0
I2
I-3
I-2
I12
tp566
a(I114
I-32
I13
I94
I34
I95
I-225
I-294
I-275
I-740
I134
I-30
I7
I94
I29
I86
I-1645
I4
I22
tp567
aa(lp568
F1611228976.302805
aI-80
aI17
aI463
a(I0
I-1
I-2
I-3
I-5
I3
I2
I0
I-2
I4
I-5
I-2
I-1
I-6
I0
I1
I-3
I-1
I0
I0
I0
I0
tp569
a(I116
I-31
I12
I94
I35
I95
I-225
I-294
I-276
I-739
I132
I-31
I8
I94
I30
I86
I-1645
I3
I22
tp570
aa(lp571
F1611228976.312631
aI-79
aI17
aI462
a(I-3
I3
I2
I-6
I-3
I6
I-1
I-9
I-2
I-1
I-8
I-5
I0
I4
I0
I-8
I-1
I4
I-2
I-8
I-5
I5
tp572
a(I115
I-31
I14
I96
I33
I96
I-225
I-295
I-276
I-739
I133
I-30
I7
I94
I29
I85
I-1644
I5
I22
tp573
aa(lp574
F1611228976.32293
aI-79
aI16
aI463
a(I-3
I-8
I-5
I2
I4
I2
I-2
I0
I3
I5
I-10
I-4
I5
I1
I3
I0
I1
I0
I-4
I-8
I0
I4
tp575
a(I114
I-31
I13
I95
I33
I96
I-225
I-295
I-276
I-740
I132
I-29
I8
I94
I28
I85
I-1644
I3
I21
tp576
aa(lp577
F1611228976.332723
aI-80
aI17
aI463
a(I-11
I-2
I-1
I-5
I-1
I-2
I-2
I7
I8
I-10
I-5
I8
I3
I-6
I-1
I5
I9
I5
I-3
I3
I3
I0
tp578
a(I114
I-31
I13
I94
I34
I95
I-225
I-295
I-275
I-739
I134
I-30
I7
I95
I29
I87
I-1646
I4
I22
tp579
aa(lp580
F1611228976.342953
aI-80
aI19
aI462
a(I-5
I4
I-4
I4
I5
I0
I1
I6
I1
I-2
I11
I1
I0
I7
I0
I4
I6
I0
I-4
I2
I2
I5
tp581
a(I114
I-32
I12
I95
I34
I96
I-225
I-295
I-275
I-740
I133
I-30
I7
I94
I29
I86
I-1647
I3
I20
tp582
aa(lp583
F1611228976.352702
aI-80
aI19
aI462
a(I-5
I0
I2
I1
I0
I-12
I3
I3
I-6
I-5
I7
I0
I-2
I-4
I-4
I0
I7
I2
I-13
I-1
I4
I0
tp584
a(I116
I-30
I13
I94
I34
I95
I-225
I-295
I-275
I-740
I134
I-29
I6
I93
I29
I85
I-1647
I3
I21
tp585
aa(lp586
F1611228976.362879
aI-80
aI19
aI462
a(I-2
I-4
I1
I8
I-3
I-13
I0
I8
I-1
I-5
I0
I-3
I4
I-5
I-4
I1
I0
I1
I-1
I-6
I-5
I-2
tp587
a(I116
I-33
I13
I94
I34
I95
I-225
I-295
I-275
I-739
I133
I-30
I7
I94
I30
I86
I-1645
I3
I23
tp588
aa(lp589
F1611228976.372715
aI-80
aI18
aI463
a(I2
I0
I-8
I2
I5
I-3
I-2
I3
I9
I-1
I0
I3
I6
I1
I-1
I-1
I4
I2
I-8
I0
I7
I-2
tp590
a(I116
I-32
I12
I95
I34
I95
I-225
I-294
I-276
I-740
I133
I-30
I8
I94
I30
I86
I-1646
I2
I22
tp591
aa(lp592
F1611228976.382833
aI-80
aI19
aI462
a(I-2
I1
I1
I4
I-3
I-13
I4
I0
I-4
I-1
I1
I0
I2
I0
I-3
I-3
I-2
I0
I-3
I-2
I-4
I0
tp593
a(I115
I-32
I12
I94
I35
I95
I-226
I-295
I-275
I-740
I133
I-29
I7
I93
I29
I85
I-1647
I5
I22
tp594
aa(lp595
F1611228976.392761
aI-80
aI20
aI462
a(I2
I0
I-1
I-1
I-3
I-6
I0
I0
I2
I4
I7
I0
I4
I4
I1
I-2
I3
I-2
I-2
I0
I1
I0
tp596
a(I116
I-32
I14
I95
I34
I96
I-225
I-295
I-275
I-739
I133
I-30
I7
I93
I30
I86
I-1646
I2
I22
tp597
aa(lp598
F1611228976.402659
aI-80
aI18
aI462
a(I-2
I-1
I-6
I2
I2
I0
I-1
I6
I2
I0
I-2
I-3
I5
I5
I-7
I-1
I9
I-2
I-3
I-4
I1
I-2
tp599
a(I116
I-33
I13
I94
I35
I94
I-225
I-294
I-276
I-739
I132
I-30
I7
I93
I28
I85
I-1646
I5
I23
tp600
aa(lp601
F1611228976.412659
aI-80
aI19
aI462
a(I12
I-2
I-4
I-2
I0
I-1
I7
I1
I0
I6
I5
I3
I3
I-2
I0
I5
I4
I-10
I1
I2
I5
I0
tp602
a(I115
I-31
I12
I95
I35
I95
I-225
I-295
I-275
I-739
I133
I-30
I6
I94
I29
I86
I-1647
I4
I21
tp603
aa(lp604
F1611228976.422678
aI-79
aI19
aI463
a(I5
I3
I0
I3
I-3
I0
I5
I5
I-2
I0
I0
I3
I1
I-2
I-2
I-1
I0
I-4
I0
I-1
I-3
I1
tp605
a(I114
I-32
I14
I94
I35
I95
I-225
I-294
I-275
I-739
I133
I-30
I8
I95
I29
I86
I-1646
I2
I21
tp606
aa(lp607
F1611228976.432636
aI-79
aI19
aI462
a(I1
I-8
I1
I5
I0
I-1
I7
I0
I-10
I0
I6
I3
I-1
I-1
I2
I1
I-3
I-3
I5
I7
I0
I3
tp608
a(I115
I-32
I13
I95
I34
I96
I-225
I-293
I-276
I-739
I133
I-31
I8
I94
I28
I87
I-1646
I4
I22
tp609
aa(lp610
F1611228976.442794
aI-80
aI18
aI463
a(I-3
I0
I0
I-5
I-9
I2
I2
I-8
I-1
I6
I-4
I-1
I0
I2
I4
I-3
I-2
I0
I-2
I0
I2
I1
tp611
a(I115
I-32
I13
I93
I33
I96
I-225
I-294
I-275
I-739
I133
I-31
I7
I94
I30
I85
I-1645
I4
I23
tp612
aa(lp613
F1611228976.452707
aI-80
aI19
aI463
a(I-5
I-1
I1
I1
I-1
I0
I-1
I3
I8
I-7
I-7
I5
I5
I-5
I2
I7
I0
I0
I-5
I-2
I0
I7
tp614
a(I117
I-32
I12
I94
I34
I95
I-225
I-295
I-275
I-739
I133
I-30
I8
I94
I30
I86
I-1644
I3
I22
tp615
aa(lp616
F1611228976.462551
aI-80
aI18
aI462
a(I-1
I0
I5
I-4
I-1
I-4
I-11
I0
I1
I0
I-3
I9
I-1
I-7
I0
I8
I-1
I-3
I-7
I5
I0
I2
tp617
a(I116
I-32
I12
I94
I34
I96
I-224
I-295
I-275
I-739
I132
I-31
I8
I93
I30
I85
I-1645
I4
I21
tp618
aa(lp619
F1611228976.472955
aI-79
aI17
aI463
a(I-3
I1
I-4
I-7
I0
I2
I-2
I-3
I-4
I2
I-2
I0
I-8
I0
I3
I-2
I-9
I3
I4
I-6
I-9
I2
tp620
a(I117
I-32
I13
I95
I34
I94
I-226
I-295
I-276
I-740
I133
I-30
I7
I95
I29
I85
I-1645
I3
I20
tp621
aa(lp622
F1611228976.482672
aI-80
aI16
aI462
a(I-1
I4
I-2
I-7
I5
I2
I-7
I-1
I7
I3
I-1
I-5
I-7
I6
I4
I-5
I-7
I4
I-1
I-4
I5
I-1
tp623
a(I116
I-33
I14
I94
I34
I95
I-224
I-295
I-276
I-739
I133
I-29
I7
I93
I28
I86
I-1646
I4
I21
tp624
aa(lp625
F1611228976.492647
aI-80
aI17
aI463
a(I-4
I0
I-2
I0
I-4
I-9
I0
I4
I0
I-6
I-2
I6
I-5
I-4
I-5
I1
I11
I6
I-10
I1
I10
I-2
tp626
a(I117
I-32
I12
I93
I35
I95
I-225
I-294
I-276
I-740
I133
I-31
I8
I94
I29
I87
I-1645
I4
I23
tp627
aa(lp628
F1611228976.502892
aI-80
aI18
aI462
a(I-8
I-2
I3
I0
I-2
I-2
I-1
I5
I0
I1
I1
I0
I-5
I2
I0
I-2
I0
I3
I0
I3
I-1
I-2
tp629
a(I115
I-31
I13
I95
I35
I96
I-225
I-294
I-276
I-740
I133
I-29
I7
I93
I28
I85
I-1645
I3
I23
tp630
aa(lp631
F1611228976.51282
aI-80
aI17
aI463
a(I0
I10
I2
I-1
I2
I6
I-1
I-2
I0
I3
I14
I-2
I-5
I2
I7
I-4
I4
I0
I2
I4
I4
I0
tp632
a(I115
I-31
I13
I96
I35
I95
I-225
I-295
I-276
I-739
I133
I-31
I8
I93
I30
I85
I-1645
I3
I21
tp633
aa(lp634
F1611228976.522635
aI-80
aI17
aI462
a(I6
I-3
I-6
I5
I4
I-9
I-6
I0
I-1
I-2
I-1
I3
I1
I-1
I-9
I5
I3
I-6
I-3
I4
I-3
I-5
tp635
a(I115
I-31
I12
I94
I34
I96
I-225
I-295
I-275
I-740
I133
I-30
I8
I95
I29
I86
I-1645
I3
I22
tp636
aa(lp637
F1611228976.532835
aI-80
aI19
aI462
a(I0
I-1
I1
I-2
I1
I0
I10
I0
I-7
I3
I7
I-3
I2
I0
I4
I5
I-5
I-1
I3
I5
I-4
I-2
tp638
a(I115
I-32
I12
I95
I34
I96
I-225
I-294
I-274
I-739
I134
I-30
I7
I94
I28
I86
I-1644
I3
I23
tp639
aa(lp640
F1611228976.542759
aI-80
aI18
aI463
a(I-1
I-1
I3
I-5
I-3
I0
I7
I-7
I-5
I4
I4
I-8
I0
I3
I0
I-2
I1
I-5
I0
I-1
I3
I4
tp641
a(I115
I-34
I13
I94
I35
I95
I-225
I-294
I-276
I-740
I132
I-30
I7
I93
I29
I85
I-1645
I3
I22
tp642
aa(lp643
F1611228976.552563
aI-80
aI17
aI462
a(I3
I-6
I0
I6
I-5
I-8
I0
I0
I11
I8
I-7
I3
I11
I2
I-9
I4
I4
I1
I2
I-3
I4
I11
tp644
a(I117
I-31
I13
I95
I34
I96
I-225
I-294
I-275
I-739
I133
I-30
I7
I93
I30
I85
I-1645
I5
I22
tp645
aa(lp646
F1611228976.562982
aI-79
aI16
aI462
a(I-2
I-3
I1
I2
I1
I-1
I-2
I0
I6
I0
I-9
I0
I4
I-7
I-1
I3
I0
I0
I3
I1
I5
I3
tp647
a(I115
I-32
I12
I95
I35
I95
I-225
I-295
I-275
I-740
I134
I-31
I8
I94
I29
I86
I-1645
I4
I21
tp648
aa(lp649
F1611228976.572819
aI-80
aI18
aI462
a(I-2
I0
I-2
I-8
I0
I-4
I2
I2
I0
I-4
I0
I2
I-8
I8
I11
I0
I-2
I5
I-3
I0
I2
I0
tp650
a(I114
I-32
I12
I95
I34
I94
I-226
I-295
I-276
I-739
I132
I-31
I6
I94
I29
I85
I-1645
I4
I21
tp651
aa(lp652
F1611228976.582573
aI-79
aI18
aI462
a(I-3
I0
I-1
I1
I2
I-5
I-1
I1
I-4
I-7
I3
I0
I-6
I4
I5
I-4
I-2
I-2
I-2
I5
I0
I-11
tp653
a(I116
I-32
I11
I95
I35
I95
I-224
I-295
I-276
I-740
I133
I-30
I7
I93
I29
I86
I-1647
I3
I22
tp654
aa(lp655
F1611228976.592636
aI-80
aI16
aI463
a(I2
I10
I0
I-5
I0
I5
I4
I-1
I0
I11
I0
I-3
I-8
I5
I2
I-7
I0
I2
I0
I0
I-2
I1
tp656
a(I116
I-33
I15
I94
I35
I95
I-225
I-295
I-276
I-739
I133
I-30
I7
I93
I29
I86
I-1645
I4
I21
tp657
aa(lp658
F1611228976.602733
aI-80
aI17
aI463
a(I-2
I3
I0
I-2
I0
I-3
I-2
I3
I-2
I-4
I-4
I0
I-2
I4
I8
I4
I0
I6
I-4
I2
I4
I0
tp659
a(I115
I-31
I14
I95
I34
I96
I-225
I-295
I-276
I-739
I134
I-30
I8
I93
I29
I86
I-1646
I3
I22
tp660
aa(lp661
F1611228976.612591
aI-80
aI19
aI463
a(I1
I6
I4
I1
I-1
I3
I-5
I-2
I4
I-1
I-2
I1
I3
I-3
I-2
I-4
I0
I3
I-4
I-9
I-1
I6
tp662
a(I115
I-31
I13
I94
I35
I95
I-224
I-295
I-276
I-739
I134
I-30
I7
I93
I28
I85
I-1644
I4
I21
tp663
aa(lp664
F1611228976.622753
aI-80
aI19
aI463
a(I-1
I0
I-5
I-2
I2
I7
I-11
I-4
I5
I6
I0
I0
I2
I3
I4
I-4
I-7
I11
I3
I-6
I1
I5
tp665
a(I115
I-32
I12
I92
I33
I96
I-225
I-295
I-276
I-739
I133
I-29
I7
I95
I29
I86
I-1646
I5
I22
tp666
aa(lp667
F1611228976.632785
aI-79
aI21
aI463
a(I-3
I6
I1
I0
I0
I-1
I-5
I6
I6
I-4
I-7
I4
I2
I-5
I-4
I0
I2
I-1
I-2
I2
I10
I-3
tp668
a(I115
I-32
I14
I94
I36
I96
I-225
I-295
I-276
I-739
I134
I-30
I7
I93
I30
I86
I-1646
I3
I21
tp669
aa(lp670
F1611228976.642578
aI-80
aI21
aI462
a(I-7
I2
I1
I3
I3
I2
I-8
I1
I4
I0
I-6
I9
I0
I1
I-2
I-3
I0
I0
I-8
I-4
I8
I-3
tp671
a(I114
I-32
I14
I94
I34
I95
I-225
I-295
I-276
I-740
I134
I-30
I8
I93
I28
I85
I-1645
I4
I21
tp672
aa(lp673
F1611228976.652744
aI-80
aI19
aI462
a(I-3
I7
I1
I-4
I-6
I2
I1
I-2
I-7
I-7
I4
I4
I0
I-2
I3
I3
I1
I-4
I-6
I2
I6
I2
tp674
a(I116
I-32
I14
I95
I34
I95
I-224
I-295
I-276
I-739
I132
I-29
I7
I93
I29
I87
I-1645
I3
I21
tp675
aa(lp676
F1611228976.66275
aI-79
aI17
aI462
a(I-3
I3
I2
I0
I-1
I-5
I-7
I5
I1
I-5
I-4
I5
I-4
I-4
I0
I-4
I-6
I1
I-4
I3
I4
I3
tp677
a(I114
I-32
I14
I95
I34
I95
I-225
I-296
I-275
I-740
I133
I-31
I7
I93
I29
I86
I-1644
I4
I22
tp678
aa(lp679
F1611228976.672547
aI-80
aI17
aI462
a(I2
I6
I-5
I-4
I6
I-6
I-3
I3
I0
I-3
I0
I2
I-3
I8
I6
I5
I1
I7
I-1
I4
I4
I-2
tp680
a(I115
I-32
I13
I95
I34
I96
I-225
I-295
I-276
I-739
I133
I-30
I7
I93
I29
I87
I-1644
I3
I21
tp681
aa(lp682
F1611228976.682716
aI-79
aI19
aI462
a(I-2
I6
I1
I0
I-2
I-1
I8
I6
I0
I0
I12
I-1
I-3
I5
I4
I-4
I0
I9
I3
I3
I5
I0
tp683
a(I115
I-32
I14
I94
I34
I94
I-225
I-294
I-276
I-739
I132
I-30
I7
I94
I29
I86
I-1644
I3
I22
tp684
aa(lp685
F1611228976.692887
aI-80
aI19
aI462
a(I-1
I6
I-1
I0
I4
I-9
I3
I1
I0
I3
I5
I5
I1
I0
I5
I-6
I0
I6
I1
I1
I2
I7
tp686
a(I115
I-32
I14
I94
I33
I96
I-226
I-295
I-276
I-739
I133
I-29
I7
I94
I27
I86
I-1644
I3
I22
tp687
aa(lp688
F1611228976.702661
aI-80
aI19
aI462
a(I-1
I-2
I-5
I1
I7
I-4
I-11
I2
I4
I0
I-7
I-7
I0
I7
I-6
I-12
I-2
I4
I-1
I-8
I2
I4
tp689
a(I116
I-32
I13
I95
I35
I95
I-225
I-294
I-276
I-739
I132
I-30
I6
I93
I29
I85
I-1644
I5
I22
tp690
aa(lp691
F1611228976.712774
aI-80
aI19
aI462
a(I2
I3
I-5
I0
I1
I-3
I-1
I0
I2
I7
I2
I-5
I0
I3
I6
I5
I6
I-2
I0
I14
I5
I-6
tp692
a(I114
I-32
I13
I94
I35
I95
I-225
I-295
I-276
I-739
I134
I-29
I8
I94
I29
I86
I-1645
I5
I21
tp693
aa(lp694
F1611228976.722886
aI-80
aI19
aI462
a(I1
I-1
I0
I2
I-1
I-4
I4
I0
I-1
I-2
I0
I7
I10
I-2
I-4
I3
I-1
I-1
I2
I-3
I-1
I2
tp695
a(I116
I-32
I13
I95
I35
I96
I-225
I-295
I-275
I-740
I133
I-31
I7
I93
I28
I86
I-1644
I3
I22
tp696
aa(lp697
F1611228976.732677
aI-80
aI18
aI462
a(I0
I-13
I2
I4
I-4
I-7
I6
I1
I-2
I-5
I-8
I-2
I6
I-9
I-7
I3
I0
I3
I0
I-1
I4
I0
tp698
a(I115
I-32
I14
I94
I33
I96
I-225
I-294
I-276
I-739
I134
I-31
I8
I93
I30
I86
I-1644
I4
I21
tp699
aa(lp700
F1611228976.742781
aI-79
aI19
aI462
a(I-7
I0
I4
I-7
I-4
I5
I3
I-3
I0
I10
I3
I-2
I-5
I4
I8
I0
I-4
I7
I6
I2
I1
I-4
tp701
a(I114
I-32
I14
I94
I35
I95
I-225
I-295
I-274
I-739
I132
I-30
I7
I93
I29
I86
I-1644
I4
I21
tp702
aa(lp703
F1611228976.752926
aI-80
aI18
aI461
a(I-1
I16
I2
I-8
I-8
I3
I-3
I-2
I-8
I-1
I7
I0
I-10
I0
I0
I0
I-5
I-6
I0
I7
I-1
I-2
tp704
a(I114
I-32
I12
I95
I35
I96
I-225
I-294
I-276
I-740
I134
I-31
I6
I93
I28
I86
I-1645
I3
I21
tp705
aa(lp706
F1611228976.762725
aI-80
aI18
aI463
a(I4
I2
I-5
I0
I6
I-2
I-5
I-1
I1
I3
I5
I-3
I-1
I3
I5
I-3
I4
I-1
I4
I-3
I-3
I0
tp707
a(I115
I-32
I14
I94
I33
I95
I-225
I-295
I-276
I-739
I132
I-29
I6
I94
I29
I86
I-1644
I4
I23
tp708
aa(lp709
F1611228976.772656
aI-80
aI18
aI462
a(I4
I-1
I-2
I1
I0
I-4
I4
I0
I-3
I5
I6
I0
I-1
I0
I-1
I-3
I-5
I-2
I-1
I0
I-6
I-6
tp710
a(I115
I-31
I13
I95
I34
I95
I-225
I-294
I-275
I-739
I132
I-30
I8
I94
I28
I87
I-1646
I4
I20
tp711
aa(lp712
F1611228976.782763
aI-80
aI18
aI462
a(I-5
I-3
I4
I-1
I-2
I1
I3
I-3
I-3
I-1
I-6
I-1
I4
I-6
I-3
I2
I3
I3
I-3
I0
I-2
I4
tp713
a(I115
I-31
I12
I95
I36
I95
I-225
I-294
I-275
I-740
I132
I-30
I7
I95
I29
I86
I-1645
I4
I21
tp714
aa(lp715
F1611228976.792712
aI-79
aI18
aI462
a(I-1
I-9
I0
I4
I-3
I0
I0
I1
I5
I3
I-7
I11
I7
I-6
I-3
I5
I3
I-3
I-1
I14
I5
I-7
tp716
a(I115
I-32
I15
I95
I34
I95
I-225
I-294
I-275
I-740
I134
I-30
I8
I94
I29
I86
I-1647
I2
I21
tp717
aa(lp718
F1611228976.802792
aI-80
aI19
aI462
a(I-6
I6
I0
I-7
I-1
I9
I10
I-5
I-8
I4
I1
I-2
I-4
I-6
I11
I9
I-3
I0
I2
I4
I-5
I0
tp719
a(I115
I-32
I14
I94
I33
I94
I-225
I-294
I-277
I-740
I133
I-30
I8
I95
I28
I87
I-1646
I4
I21
tp720
aa(lp721
F1611228976.813004
aI-80
aI16
aI462
a(I1
I0
I-2
I-3
I-3
I3
I-10
I-7
I0
I-2
I-3
I1
I-3
I5
I6
I0
I-4
I13
I7
I-6
I0
I5
tp722
a(I115
I-32
I14
I93
I35
I95
I-225
I-294
I-274
I-739
I132
I-31
I7
I93
I28
I87
I-1645
I3
I22
tp723
aa(lp724
F1611228976.822669
aI-80
aI17
aI462
a(I0
I0
I-1
I0
I0
I0
I2
I4
I1
I3
I2
I-2
I-3
I1
I3
I-7
I-3
I5
I1
I5
I0
I1
tp725
a(I116
I-31
I14
I94
I33
I96
I-225
I-294
I-275
I-739
I133
I-30
I7
I94
I30
I87
I-1646
I3
I21
tp726
aa(lp727
F1611228976.832554
aI-80
aI17
aI462
a(I5
I4
I-3
I0
I0
I-3
I-4
I1
I0
I-2
I-2
I4
I1
I9
I-6
I0
I2
I-7
I-4
I0
I-4
I-8
tp728
a(I115
I-31
I12
I94
I33
I96
I-225
I-294
I-276
I-739
I133
I-30
I7
I94
I29
I86
I-1644
I4
I21
tp729
aa(lp730
F1611228976.842817
aI-79
aI17
aI462
a(I-3
I-5
I-7
I-3
I0
I-1
I4
I0
I-6
I-2
I6
I3
I0
I-7
I-5
I2
I-1
I-5
I0
I5
I-1
I7
tp731
a(I116
I-32
I14
I95
I35
I94
I-225
I-294
I-276
I-739
I132
I-29
I6
I94
I28
I87
I-1646
I3
I22
tp732
aa(lp733
F1611228976.852624
aI-80
aI17
aI462
a(I9
I0
I6
I3
I0
I-7
I6
I6
I-1
I1
I7
I5
I3
I2
I1
I3
I-1
I4
I0
I0
I-7
I2
tp734
a(I115
I-33
I14
I93
I34
I95
I-225
I-295
I-277
I-740
I132
I-30
I6
I94
I29
I86
I-1646
I3
I21
tp735
aa(lp736
F1611228976.862542
aI-79
aI16
aI462
a(I-1
I-7
I-3
I2
I4
I0
I1
I-8
I2
I8
I-3
I-3
I6
I1
I0
I-7
I-2
I0
I-1
I-3
I1
I6
tp737
a(I116
I-32
I13
I95
I34
I94
I-226
I-294
I-276
I-739
I132
I-30
I7
I93
I29
I86
I-1644
I3
I22
tp738
aa(lp739
F1611228976.872661
aI-79
aI17
aI462
a(I-1
I-2
I4
I1
I-2
I1
I3
I-1
I1
I0
I0
I6
I9
I-3
I4
I9
I-2
I0
I7
I0
I-5
I3
tp740
a(I115
I-33
I14
I95
I35
I95
I-225
I-294
I-276
I-740
I134
I-30
I7
I94
I30
I86
I-1645
I4
I21
tp741
aa(lp742
F1611228976.882548
aI-80
aI18
aI461
a(I-1
I5
I3
I-8
I4
I9
I-2
I-4
I7
I4
I0
I4
I8
I0
I0
I0
I3
I4
I-4
I-6
I2
I7
tp743
a(I117
I-31
I12
I94
I34
I96
I-225
I-294
I-276
I-740
I133
I-30
I8
I93
I30
I86
I-1645
I4
I21
tp744
aa(lp745
F1611228976.89261
aI-80
aI19
aI462
a(I-6
I-2
I0
I6
I0
I-2
I-9
I4
I6
I-4
I-13
I4
I2
I0
I-1
I4
I4
I3
I2
I0
I0
I3
tp746
a(I115
I-31
I14
I94
I34
I95
I-225
I-296
I-275
I-739
I133
I-31
I8
I94
I29
I86
I-1646
I4
I21
tp747
aa(lp748
F1611228976.902824
aI-80
aI18
aI462
a(I-3
I3
I-8
I-4
I0
I1
I-3
I0
I1
I5
I2
I0
I-7
I0
I3
I-4
I-8
I0
I0
I-4
I1
I-3
tp749
a(I115
I-32
I13
I94
I33
I95
I-225
I-295
I-276
I-740
I132
I-30
I7
I94
I28
I85
I-1645
I3
I21
tp750
aa(lp751
F1611228976.912584
aI-80
aI19
aI462
a(I2
I2
I0
I-1
I-1
I-4
I1
I3
I3
I-2
I-2
I2
I-3
I4
I0
I3
I1
I2
I-3
I-4
I-2
I6
tp752
a(I116
I-31
I13
I95
I35
I95
I-225
I-294
I-275
I-740
I132
I-31
I8
I93
I29
I87
I-1644
I4
I20
tp753
aa(lp754
F1611228976.922731
aI-80
aI18
aI462
a(I-2
I-8
I-1
I7
I-1
I-8
I-13
I0
I3
I-10
I-5
I5
I6
I-9
I-7
I-4
I-1
I-4
I-8
I-4
I6
I0
tp755
a(I114
I-32
I13
I95
I34
I95
I-225
I-293
I-276
I-739
I133
I-31
I7
I94
I28
I87
I-1644
I4
I22
tp756
aa(lp757
F1611228976.932665
aI-80
aI19
aI462
a(I-5
I0
I4
I-5
I-2
I-3
I4
I0
I1
I0
I1
I8
I2
I0
I0
I0
I-1
I5
I-3
I-3
I5
I4
tp758
a(I115
I-32
I13
I94
I33
I96
I-225
I-293
I-276
I-740
I133
I-30
I7
I93
I29
I86
I-1644
I5
I22
tp759
aa(lp760
F1611228976.94347
aI-80
aI18
aI462
a(I-2
I1
I8
I0
I1
I-1
I7
I3
I-2
I2
I4
I9
I2
I-2
I1
I0
I-2
I0
I-8
I-3
I8
I5
tp761
a(I116
I-32
I12
I95
I34
I97
I-225
I-294
I-276
I-739
I133
I-30
I7
I93
I30
I86
I-1645
I4
I20
tp762
aa(lp763
F1611228976.95254
aI-80
aI19
aI463
a(I-5
I0
I0
I6
I-6
I-5
I2
I2
I0
I0
I5
I7
I0
I-5
I0
I-3
I-6
I0
I-1
I-3
I2
I3
tp764
a(I116
I-32
I13
I95
I35
I95
I-225
I-293
I-276
I-739
I132
I-32
I8
I93
I29
I87
I-1645
I4
I23
tp765
aa(lp766
F1611228976.962911
aI-79
aI19
aI462
a(I-1
I3
I3
I-10
I-7
I2
I-4
I-5
I-8
I6
I0
I-4
I-3
I6
I8
I-5
I-8
I0
I3
I-1
I3
I1
tp767
a(I116
I-32
I14
I95
I35
I96
I-226
I-295
I-276
I-739
I133
I-30
I7
I93
I28
I86
I-1644
I3
I23
tp768
aa(lp769
F1611228976.972676
aI-79
aI17
aI462
a(I4
I2
I1
I6
I-1
I5
I8
I-3
I2
I3
I-2
I1
I2
I4
I0
I-3
I0
I11
I-4
I-7
I2
I10
tp770
a(I115
I-33
I11
I95
I35
I94
I-225
I-294
I-275
I-740
I134
I-30
I9
I95
I29
I84
I-1644
I3
I21
tp771
aa(lp772
F1611228976.982498
aI-80
aI16
aI463
a(I-2
I-2
I-5
I2
I1
I-10
I-16
I2
I3
I-3
I-11
I2
I2
I0
I-2
I-7
I-4
I0
I-8
I-1
I0
I0
tp773
a(I116
I-31
I14
I95
I34
I95
I-225
I-295
I-276
I-740
I132
I-31
I7
I93
I29
I85
I-1644
I4
I23
tp774
aa(lp775
F1611228976.993593
aI-80
aI17
aI462
a(I-4
I-3
I-8
I0
I6
I-1
I-6
I0
I8
I-2
I-7
I8
I9
I-3
I-11
I5
I5
I-1
I-14
I4
I10
I1
tp776
a(I115
I-32
I15
I94
I35
I95
I-225
I-295
I-275
I-739
I132
I-30
I9
I93
I29
I86
I-1645
I2
I22
tp777
aa(lp778
F1611228977.002684
aI-80
aI17
aI462
a(I-8
I-2
I5
I3
I-4
I-8
I-4
I11
I-2
I-8
I-2
I4
I0
I-4
I-4
I3
I11
I2
I-4
I6
I10
I-1
tp779
a(I115
I-32
I13
I95
I34
I96
I-225
I-294
I-276
I-740
I133
I-30
I7
I93
I29
I86
I-1645
I3
I20
tp780
aa(lp781
F1611228977.012524
aI-80
aI16
aI462
a(I2
I8
I-3
I6
I-1
I-3
I5
I4
I-8
I4
I7
I-4
I-2
I12
I7
I-2
I-11
I4
I5
I1
I-3
I0
tp782
a(I116
I-32
I14
I94
I33
I95
I-225
I-295
I-277
I-739
I132
I-30
I7
I93
I29
I86
I-1644
I3
I21
tp783
aa(lp784
F1611228977.023152
aI-80
aI18
aI462
a(I9
I-1
I-5
I-1
I-3
I-8
I3
I-3
I0
I0
I-1
I1
I8
I-5
I-11
I7
I2
I-10
I-1
I6
I0
I0
tp785
a(I114
I-32
I13
I96
I35
I95
I-226
I-295
I-276
I-739
I133
I-30
I7
I94
I29
I87
I-1644
I3
I21
tp786
aa(lp787
F1611228977.032516
aI-80
aI19
aI462
a(I-6
I0
I0
I0
I0
I9
I3
I-4
I0
I7
I2
I4
I7
I4
I5
I4
I-4
I4
I9
I1
I-6
I-5
tp788
a(I115
I-33
I14
I95
I35
I96
I-225
I-294
I-275
I-740
I133
I-31
I9
I94
I29
I87
I-1646
I4
I22
tp789
aa(lp790
F1611228977.042482
aI-80
aI17
aI462
a(I-4
I0
I-2
I-6
I2
I9
I2
I-5
I-2
I-1
I3
I0
I-8
I-2
I1
I-6
I-9
I0
I4
I-4
I-4
I4
tp791
a(I115
I-32
I15
I95
I35
I96
I-225
I-295
I-276
I-740
I133
I-30
I7
I93
I28
I86
I-1644
I4
I22
tp792
aa(lp793
F1611228977.052759
aI-80
aI17
aI462
a(I0
I-9
I-7
I1
I-1
I-9
I-8
I4
I0
I-5
I-5
I0
I3
I-5
I-1
I0
I-5
I-2
I2
I-3
I0
I5
tp794
a(I115
I-31
I13
I95
I34
I95
I-225
I-294
I-275
I-740
I131
I-31
I8
I94
I29
I85
I-1644
I4
I23
tp795
aa(lp796
F1611228977.06258
aI-80
aI19
aI463
a(I1
I0
I1
I2
I1
I-2
I2
I3
I6
I5
I0
I3
I4
I0
I1
I10
I-1
I3
I2
I2
I1
I3
tp797
a(I115
I-32
I14
I94
I36
I96
I-225
I-295
I-276
I-739
I131
I-30
I7
I95
I29
I86
I-1644
I4
I21
tp798
aa(lp799
F1611228977.072573
aI-80
aI14
aI463
a(I-6
I0
I5
I-3
I-12
I-2
I0
I-8
I-1
I0
I-3
I2
I-2
I-6
I-2
I-4
I-1
I0
I-8
I-4
I0
I-3
tp800
a(I114
I-32
I14
I94
I35
I96
I-225
I-294
I-276
I-739
I133
I-30
I7
I93
I29
I85
I-1644
I5
I22
tp801
aa(lp802
F1611228977.083389
aI-80
aI14
aI462
a(I-11
I-5
I-1
I-6
I-11
I1
I-2
I-5
I0
I0
I11
I2
I-7
I3
I15
I0
I-13
I0
I6
I0
I-6
I0
tp803
a(I115
I-32
I13
I94
I33
I96
I-224
I-295
I-275
I-740
I133
I-30
I8
I92
I29
I86
I-1644
I4
I22
tp804
aa(lp805
F1611228977.092603
aI-80
aI16
aI463
a(I2
I7
I-9
I-7
I4
I5
I-4
I-3
I7
I4
I0
I1
I7
I2
I4
I2
I6
I0
I-3
I3
I9
I0
tp806
a(I115
I-32
I13
I94
I34
I95
I-225
I-294
I-275
I-739
I132
I-29
I7
I94
I29
I86
I-1646
I3
I20
tp807
aa(lp808
F1611228977.102572
aI-80
aI17
aI462
a(I0
I3
I-3
I2
I2
I-3
I0
I4
I3
I2
I3
I5
I0
I1
I-5
I-7
I5
I1
I-7
I-2
I2
I3
tp809
a(I114
I-33
I14
I95
I34
I96
I-225
I-294
I-276
I-739
I132
I-29
I6
I94
I29
I87
I-1644
I3
I22
tp810
aa(lp811
F1611228977.113023
aI-80
aI17
aI463
a(I2
I-3
I-8
I4
I-3
I-12
I3
I3
I-4
I-3
I7
I3
I-3
I-6
I10
I4
I-6
I-6
I1
I5
I0
I-4
tp812
a(I115
I-31
I14
I96
I34
I95
I-225
I-295
I-276
I-739
I132
I-29
I7
I93
I28
I86
I-1644
I4
I22
tp813
aa(lp814
F1611228977.122662
aI-79
aI17
aI462
a(I10
I2
I-1
I2
I5
I-5
I0
I0
I1
I0
I-1
I0
I3
I-1
I-7
I-2
I-1
I2
I-5
I1
I5
I-9
tp815
a(I114
I-31
I13
I94
I34
I95
I-225
I-294
I-275
I-739
I133
I-31
I8
I93
I30
I86
I-1644
I4
I22
tp816
aa(lp817
F1611228977.132608
aI-79
aI14
aI462
a(I-8
I2
I-2
I-3
I-4
I1
I6
I-13
I-12
I6
I8
I-3
I-6
I0
I1
I-8
I-5
I-3
I-1
I-1
I0
I-2
tp818
a(I116
I-32
I12
I95
I35
I96
I-225
I-293
I-276
I-740
I133
I-30
I8
I93
I29
I86
I-1646
I4
I23
tp819
aa(lp820
F1611228977.143221
aI-80
aI15
aI462
a(I0
I1
I-3
I-1
I2
I4
I8
I3
I-2
I2
I11
I-6
I-2
I9
I2
I-2
I-2
I3
I-2
I0
I-2
I-5
tp821
a(I116
I-32
I13
I94
I34
I94
I-224
I-294
I-276
I-739
I133
I-30
I6
I94
I28
I87
I-1647
I4
I22
tp822
aa(lp823
F1611228977.152788
aI-80
aI16
aI463
a(I-2
I4
I0
I-4
I-1
I-7
I1
I4
I0
I-6
I4
I-1
I-4
I-4
I-4
I0
I3
I-1
I-5
I0
I1
I2
tp824
a(I115
I-31
I13
I95
I34
I94
I-225
I-295
I-275
I-739
I132
I-29
I7
I93
I29
I86
I-1646
I3
I22
tp825
aa(lp826
F1611228977.162589
aI-79
aI15
aI462
a(I-2
I1
I-1
I2
I-3
I-3
I-4
I10
I0
I-7
I2
I7
I1
I-7
I-2
I3
I-3
I-2
I-1
I-1
I1
I-2
tp827
a(I115
I-32
I12
I94
I35
I96
I-225
I-294
I-275
I-740
I132
I-30
I7
I94
I29
I86
I-1645
I4
I21
tp828
aa(lp829
F1611228977.172665
aI-80
aI16
aI462
a(I0
I0
I0
I-1
I0
I0
I-6
I0
I0
I1
I-7
I7
I7
I0
I-1
I2
I3
I10
I0
I-1
I4
I0
tp830
a(I115
I-32
I12
I96
I34
I96
I-225
I-294
I-276
I-739
I133
I-30
I8
I94
I29
I86
I-1645
I3
I22
tp831
aa(lp832
F1611228977.182796
aI-80
aI17
aI462
a(I0
I-2
I0
I2
I-5
I1
I0
I-4
I0
I0
I-3
I6
I1
I-1
I0
I-3
I-3
I-5
I2
I-3
I-4
I7
tp833
a(I115
I-33
I13
I95
I34
I95
I-225
I-295
I-276
I-739
I132
I-30
I7
I94
I29
I87
I-1645
I4
I21
tp834
aa(lp835
F1611228977.192651
aI-80
aI18
aI462
a(I3
I-6
I0
I3
I8
I0
I-1
I3
I6
I3
I-3
I-5
I2
I7
I0
I-2
I2
I0
I-4
I-4
I0
I0
tp836
a(I115
I-31
I13
I96
I34
I94
I-225
I-294
I-276
I-739
I133
I-30
I8
I94
I29
I85
I-1644
I4
I21
tp837
aa(lp838
F1611228977.202843
aI-80
aI16
aI462
a(I3
I-1
I-5
I2
I3
I-8
I0
I-2
I2
I3
I-5
I-8
I3
I8
I-4
I-7
I1
I5
I1
I-3
I1
I0
tp839
a(I115
I-32
I13
I95
I35
I96
I-225
I-295
I-275
I-739
I133
I-30
I7
I94
I29
I86
I-1645
I3
I22
tp840
aa(lp841
F1611228977.212853
aI-80
aI18
aI462
a(I3
I-3
I-3
I2
I-2
I-11
I-7
I-3
I3
I-7
I-4
I4
I0
I2
I-4
I-5
I7
I4
I-7
I2
I8
I0
tp842
a(I116
I-32
I14
I94
I34
I96
I-225
I-295
I-275
I-739
I133
I-31
I8
I93
I28
I87
I-1646
I3
I20
tp843
aa(lp844
F1611228977.222598
aI-80
aI16
aI462
a(I-9
I-7
I5
I1
I-4
I-6
I-7
I3
I-3
I1
I-3
I6
I5
I4
I-2
I0
I-3
I4
I-2
I-5
I0
I1
tp845
a(I114
I-31
I15
I95
I34
I96
I-226
I-295
I-275
I-739
I133
I-30
I8
I93
I29
I87
I-1644
I5
I22
tp846
aa(lp847
F1611228977.232754
aI-80
aI16
aI462
a(I2
I5
I1
I-2
I1
I-1
I-5
I0
I1
I0
I-1
I2
I0
I0
I-3
I-3
I-5
I7
I0
I-7
I4
I3
tp848
a(I115
I-33
I12
I94
I34
I96
I-225
I-294
I-275
I-739
I133
I-29
I8
I94
I29
I86
I-1644
I3
I22
tp849
aa(lp850
F1611228977.242889
aI-80
aI16
aI462
a(I6
I-5
I-10
I0
I3
I-5
I-9
I-1
I5
I6
I-1
I-3
I9
I3
I0
I-2
I0
I-1
I-1
I6
I-1
I-1
tp851
a(I114
I-31
I13
I93
I34
I94
I-225
I-294
I-276
I-739
I132
I-30
I8
I93
I29
I85
I-1644
I4
I21
tp852
aa(lp853
F1611228977.252607
aI-79
aI17
aI462
a(I5
I6
I-2
I-6
I3
I12
I10
I-5
I-2
I4
I5
I-7
I-3
I8
I1
I-4
I-7
I1
I-3
I2
I0
I8
tp854
a(I115
I-31
I12
I95
I35
I94
I-225
I-294
I-276
I-739
I133
I-30
I9
I93
I30
I87
I-1645
I4
I23
tp855
aa(lp856
F1611228977.262797
aI-80
aI16
aI463
a(I-5
I-3
I-6
I5
I-3
I-9
I2
I12
I3
I-7
I1
I0
I3
I-4
I-5
I1
I7
I0
I-10
I-9
I1
I2
tp857
a(I115
I-32
I13
I95
I34
I94
I-224
I-295
I-276
I-740
I134
I-30
I7
I93
I29
I87
I-1646
I2
I21
tp858
aa(lp859
F1611228977.272812
aI-80
aI14
aI462
a(I-8
I-5
I0
I1
I0
I-3
I-5
I-2
I8
I0
I-11
I1
I0
I4
I-2
I-11
I7
I11
I-3
I-5
I3
I7
tp860
a(I115
I-32
I13
I94
I35
I96
I-226
I-294
I-276
I-740
I134
I-30
I8
I94
I30
I87
I-1644
I4
I21
tp861
aa(lp862
F1611228977.282712
aI-80
aI15
aI462
a(I-2
I-4
I-3
I2
I-1
I-6
I0
I6
I-2
I-6
I2
I4
I0
I4
I7
I-2
I-6
I-2
I-8
I-4
I-1
I-4
tp863
a(I115
I-32
I11
I94
I33
I96
I-226
I-294
I-275
I-740
I132
I-30
I7
I94
I29
I86
I-1645
I3
I21
tp864
aa(lp865
F1611228977.292969
aI-80
aI15
aI463
a(I-1
I4
I-2
I2
I2
I-2
I-1
I2
I4
I0
I-2
I3
I-2
I1
I-1
I0
I0
I-1
I-8
I5
I6
I2
tp866
a(I115
I-32
I13
I94
I34
I96
I-225
I-294
I-275
I-739
I132
I-30
I7
I93
I30
I85
I-1645
I4
I22
tp867
aa(lp868
F1611228977.302909
aI-80
aI15
aI462
a(I-8
I5
I0
I-7
I0
I5
I-1
I-2
I-1
I4
I-2
I0
I0
I10
I5
I-6
I-2
I16
I7
I-1
I1
I4
tp869
a(I116
I-32
I14
I94
I35
I95
I-226
I-295
I-275
I-740
I133
I-31
I7
I94
I28
I87
I-1645
I4
I22
tp870
aa(lp871
F1611228977.312745
aI-80
aI17
aI463
a(I5
I1
I-3
I2
I5
I10
I-6
I0
I9
I-2
I-1
I5
I0
I7
I1
I-3
I2
I6
I-6
I0
I4
I-2
tp872
a(I116
I-32
I13
I96
I35
I96
I-225
I-295
I-276
I-739
I132
I-29
I7
I93
I30
I85
I-1645
I3
I21
tp873
aa(lp874
F1611228977.322742
aI-80
aI19
aI463
a(I-1
I3
I1
I-1
I-1
I-2
I-9
I1
I0
I1
I0
I2
I0
I-2
I0
I-4
I-3
I4
I-2
I-3
I4
I5
tp875
a(I115
I-32
I12
I95
I33
I96
I-225
I-293
I-276
I-739
I132
I-30
I8
I93
I28
I86
I-1644
I4
I22
tp876
aa(lp877
F1611228977.333087
aI-80
aI17
aI462
a(I-5
I-8
I-3
I3
I-3
I-2
I-4
I15
I1
I-6
I-1
I16
I1
I-6
I-7
I4
I3
I-6
I-12
I-3
I4
I-4
tp878
a(I114
I-32
I14
I96
I35
I95
I-225
I-294
I-276
I-739
I134
I-31
I8
I95
I29
I86
I-1646
I3
I21
tp879
aa(lp880
F1611228977.342839
aI-80
aI17
aI462
a(I-1
I3
I0
I0
I1
I0
I0
I9
I4
I2
I3
I10
I2
I-6
I0
I12
I6
I-1
I-11
I5
I5
I-4
tp881
a(I115
I-31
I13
I95
I34
I97
I-225
I-294
I-276
I-739
I133
I-31
I8
I93
I31
I86
I-1646
I4
I22
tp882
aa(lp883
F1611228977.352897
aI-80
aI17
aI462
a(I-10
I4
I2
I-8
I-10
I0
I-1
I2
I-6
I0
I3
I2
I-2
I4
I4
I2
I-1
I-2
I0
I5
I0
I-1
tp884
a(I115
I-32
I13
I93
I35
I96
I-225
I-294
I-276
I-739
I132
I-30
I7
I94
I29
I86
I-1643
I5
I22
tp885
aa(lp886
F1611228977.362975
aI-80
aI18
aI462
a(I-1
I2
I-10
I-5
I3
I3
I-4
I0
I4
I1
I-5
I0
I3
I7
I1
I-10
I-1
I1
I1
I-4
I-2
I0
tp887
a(I114
I-33
I15
I94
I34
I95
I-225
I-294
I-276
I-739
I132
I-30
I7
I93
I30
I85
I-1644
I4
I21
tp888
aa(lp889
F1611228977.372965
aI-79
aI16
aI462
a(I1
I4
I-4
I-8
I-1
I-5
I0
I0
I0
I1
I4
I-4
I2
I0
I8
I1
I-8
I0
I5
I0
I0
I0
tp890
a(I115
I-31
I13
I93
I34
I96
I-225
I-295
I-275
I-739
I132
I-30
I7
I93
I29
I87
I-1645
I3
I20
tp891
aa(lp892
F1611228977.382826
aI-80
aI17
aI462
a(I-3
I5
I1
I-6
I0
I3
I-2
I-1
I2
I7
I1
I-2
I-3
I0
I0
I-1
I-5
I-2
I-4
I0
I1
I4
tp893
a(I115
I-32
I14
I95
I34
I94
I-226
I-294
I-275
I-739
I132
I-31
I9
I93
I29
I86
I-1644
I4
I23
tp894
aa(lp895
F1611228977.3929
aI-79
aI18
aI462
a(I1
I-8
I3
I2
I-6
I-6
I0
I1
I5
I0
I-4
I0
I4
I-2
I0
I4
I-2
I0
I-3
I-2
I-7
I0
tp896
a(I115
I-32
I14
I95
I33
I95
I-225
I-294
I-276
I-740
I132
I-31
I7
I94
I28
I87
I-1645
I4
I23
tp897
aa(lp898
F1611228977.402731
aI-79
aI18
aI462
a(I3
I3
I0
I2
I6
I3
I-5
I-9
I4
I8
I-2
I-1
I7
I8
I3
I-2
I0
I0
I6
I3
I2
I0
tp899
a(I114
I-31
I14
I96
I34
I95
I-225
I-295
I-275
I-739
I133
I-30
I8
I93
I30
I86
I-1645
I3
I21
tp900
aa(lp901
F1611228977.413224
aI-80
aI16
aI462
a(I10
I-4
I2
I0
I2
I6
I3
I1
I3
I4
I-3
I-1
I4
I3
I11
I1
I-5
I1
I8
I-5
I-2
I3
tp902
a(I116
I-31
I14
I95
I33
I95
I-225
I-295
I-276
I-739
I131
I-31
I8
I92
I30
I86
I-1646
I5
I21
tp903
aa(lp904
F1611228977.422956
aI-80
aI17
aI462
a(I1
I-6
I0
I-2
I1
I2
I1
I-4
I7
I-1
I-3
I3
I-10
I0
I10
I0
I-6
I7
I0
I-4
I1
I2
tp905
a(I115
I-31
I13
I96
I34
I95
I-224
I-293
I-276
I-739
I132
I-30
I7
I95
I29
I86
I-1645
I2
I22
tp906
aa(lp907
F1611228977.432669
aI-80
aI17
aI462
a(I-2
I-2
I2
I-3
I4
I1
I0
I3
I-1
I-5
I-3
I5
I2
I0
I-5
I-2
I5
I4
I-6
I-7
I8
I3
tp908
a(I115
I-32
I13
I93
I33
I96
I-225
I-295
I-275
I-740
I133
I-30
I7
I94
I28
I86
I-1645
I5
I22
tp909
aa(lp910
F1611228977.442683
aI-80
aI16
aI463
a(I-5
I-6
I0
I-5
I5
I0
I-2
I-3
I1
I-2
I4
I0
I2
I5
I5
I-5
I0
I5
I3
I-2
I4
I0
tp911
a(I116
I-33
I14
I95
I33
I96
I-225
I-295
I-275
I-739
I132
I-30
I7
I94
I28
I87
I-1645
I3
I22
tp912
aa(lp913
F1611228977.454166
aI-80
aI16
aI463
a(I-4
I1
I-3
I-6
I0
I-1
I-2
I3
I0
I-3
I0
I-5
I-2
I-2
I-2
I0
I5
I0
I-8
I2
I7
I-2
tp914
a(I116
I-32
I14
I95
I34
I94
I-226
I-294
I-276
I-739
I132
I-30
I7
I94
I29
I88
I-1644
I2
I22
tp915
aa(lp916
F1611228977.462645
aI-79
aI15
aI462
a(I-4
I5
I-1
I2
I-3
I-8
I2
I5
I0
I-9
I-2
I5
I1
I-3
I-2
I6
I2
I3
I-7
I3
I2
I-3
tp917
a(I115
I-32
I13
I96
I34
I94
I-225
I-295
I-276
I-739
I134
I-30
I7
I94
I29
I86
I-1646
I3
I22
tp918
aa(lp919
F1611228977.472659
aI-80
aI15
aI462
a(I-3
I3
I-7
I2
I-1
I-4
I-12
I0
I0
I-2
I-6
I3
I0
I0
I-2
I-2
I1
I3
I-2
I1
I0
I0
tp920
a(I115
I-32
I15
I96
I33
I94
I-226
I-295
I-275
I-739
I133
I-30
I6
I93
I29
I86
I-1644
I5
I22
tp921
aa(lp922
F1611228977.482945
aI-80
aI14
aI462
a(I-2
I5
I-3
I-1
I0
I3
I-4
I3
I0
I-4
I-2
I9
I4
I-3
I-1
I1
I4
I-2
I-4
I8
I14
I0
tp923
a(I115
I-32
I13
I95
I35
I95
I-225
I-294
I-276
I-739
I133
I-32
I8
I94
I30
I85
I-1645
I5
I21
tp924
aa(lp925
F1611228977.492802
aI-80
aI15
aI462
a(I0
I5
I0
I3
I-3
I-1
I8
I6
I-3
I5
I6
I-1
I-10
I5
I6
I-5
I-8
I-2
I1
I0
I0
I0
tp926
a(I115
I-32
I15
I94
I35
I96
I-225
I-295
I-276
I-740
I133
I-30
I8
I95
I29
I85
I-1645
I3
I21
tp927
aa(lp928
F1611228977.502873
aI-80
aI15
aI462
a(I11
I2
I-6
I0
I3
I-5
I-2
I3
I0
I0
I2
I0
I0
I7
I-3
I0
I-3
I0
I-6
I4
I3
I3
tp929
a(I115
I-32
I13
I95
I35
I96
I-225
I-295
I-275
I-738
I132
I-30
I8
I94
I28
I85
I-1643
I3
I23
tp930
aa(lp931
F1611228977.513183
aI-80
aI16
aI462
a(I-4
I6
I6
I2
I-5
I1
I3
I0
I3
I1
I0
I0
I2
I4
I0
I-2
I3
I4
I-2
I6
I2
I-5
tp932
a(I115
I-32
I12
I95
I35
I95
I-226
I-294
I-275
I-739
I133
I-30
I7
I95
I29
I86
I-1644
I4
I22
tp933
aa(lp934
F1611228977.52294
aI-80
aI15
aI462
a(I-3
I-6
I-2
I2
I-1
I-3
I5
I-1
I-7
I1
I1
I-1
I2
I-2
I-4
I5
I-1
I-6
I0
I3
I4
I3
tp935
a(I116
I-33
I15
I95
I35
I96
I-225
I-294
I-276
I-740
I134
I-29
I7
I93
I27
I86
I-1646
I3
I23
tp936
aa(lp937
F1611228977.532861
aI-80
aI15
aI463
a(I0
I-7
I-3
I0
I-4
I0
I0
I-6
I-4
I1
I-2
I-6
I-1
I-4
I-5
I-7
I0
I-4
I3
I5
I-3
I3
tp938
a(I115
I-32
I13
I95
I34
I95
I-224
I-295
I-275
I-739
I134
I-30
I7
I93
I28
I87
I-1644
I4
I22
tp939
aa(lp940
F1611228977.542719
aI-80
aI16
aI461
a(I3
I2
I0
I5
I0
I1
I-2
I-6
I2
I7
I4
I1
I9
I1
I3
I5
I0
I-5
I3
I3
I-1
I-2
tp941
a(I115
I-32
I12
I95
I34
I96
I-225
I-294
I-276
I-739
I133
I-30
I8
I94
I29
I86
I-1645
I3
I21
tp942
aa(lp943
F1611228977.552751
aI-80
aI19
aI462
a(I4
I-8
I-3
I-5
I0
I-1
I-3
I-4
I5
I4
I-4
I-3
I0
I-2
I-2
I0
I3
I11
I9
I-3
I-3
I2
tp944
a(I116
I-33
I14
I96
I34
I96
I-224
I-294
I-276
I-739
I132
I-29
I7
I93
I29
I85
I-1644
I4
I21
tp945
aa(lp946
F1611228977.562678
aI-79
aI17
aI462
a(I10
I0
I-1
I-2
I0
I0
I4
I-3
I-1
I2
I6
I4
I1
I-2
I6
I1
I-8
I0
I3
I2
I2
I3
tp947
a(I117
I-32
I14
I95
I35
I96
I-226
I-295
I-276
I-739
I133
I-30
I7
I93
I30
I85
I-1643
I3
I23
tp948
aa(lp949
F1611228977.572975
aI-80
aI19
aI462
a(I4
I-4
I7
I5
I0
I-8
I10
I5
I6
I0
I3
I6
I12
I-6
I-2
I8
I2
I0
I-2
I-3
I4
I6
tp950
a(I116
I-32
I13
I94
I34
I94
I-226
I-295
I-276
I-740
I134
I-29
I8
I93
I29
I85
I-1646
I3
I21
tp951
aa(lp952
F1611228977.582593
aI-80
aI17
aI462
a(I-1
I-12
I0
I2
I-5
I0
I3
I-6
I0
I0
I-5
I4
I1
I1
I2
I3
I0
I0
I-1
I3
I11
I0
tp953
a(I114
I-31
I13
I95
I33
I95
I-226
I-294
I-276
I-739
I132
I-31
I8
I93
I28
I85
I-1645
I4
I21
tp954
aa(lp955
F1611228977.59238
aI-80
aI17
aI462
a(I-8
I-3
I7
I-2
I-5
I-2
I3
I-6
I-4
I-2
I6
I0
I3
I-3
I5
I0
I-3
I1
I0
I-9
I-3
I3
tp956
a(I115
I-33
I12
I94
I35
I95
I-225
I-294
I-275
I-740
I133
I-29
I6
I94
I29
I86
I-1644
I2
I21
tp957
aa(lp958
F1611228977.602595
aI-80
aI18
aI463
a(I2
I-5
I0
I-7
I2
I-1
I-7
I-7
I-1
I1
I-2
I-4
I-1
I5
I1
I-1
I-6
I7
I4
I-2
I-7
I-5
tp959
a(I116
I-32
I13
I94
I32
I97
I-225
I-295
I-275
I-740
I133
I-30
I7
I95
I28
I88
I-1646
I3
I20
tp960
aa(lp961
F1611228977.612595
aI-80
aI18
aI463
a(I-1
I-1
I-3
I-3
I-1
I-3
I-2
I-6
I4
I3
I-2
I6
I4
I1
I-2
I0
I3
I4
I1
I3
I1
I3
tp962
a(I115
I-32
I14
I94
I33
I96
I-225
I-294
I-275
I-739
I133
I-30
I8
I93
I29
I84
I-1644
I3
I21
tp963
aa(lp964
F1611228977.622632
aI-80
aI20
aI463
a(I-2
I-4
I4
I3
I6
I-2
I0
I-2
I4
I0
I-6
I5
I13
I4
I-9
I-5
I0
I4
I-10
I-6
I7
I15
tp965
a(I114
I-32
I13
I94
I34
I96
I-225
I-294
I-275
I-738
I133
I-31
I8
I93
I28
I87
I-1644
I4
I21
tp966
aa(lp967
F1611228977.632511
aI-80
aI16
aI462
a(I-5
I-18
I-3
I4
I-2
I-10
I-7
I6
I6
I-4
I-10
I0
I8
I0
I0
I5
I0
I-4
I-3
I-5
I-2
I1
tp968
a(I115
I-31
I13
I94
I35
I94
I-225
I-296
I-277
I-739
I133
I-31
I7
I95
I30
I87
I-1645
I3
I21
tp969
aa(lp970
F1611228977.642678
aI-80
aI16
aI462
a(I3
I3
I4
I-1
I-1
I1
I-4
I-1
I8
I3
I-4
I0
I2
I-6
I0
I2
I7
I0
I-3
I3
I6
I-4
tp971
a(I114
I-31
I12
I95
I34
I96
I-226
I-295
I-276
I-739
I133
I-30
I8
I93
I29
I87
I-1645
I4
I21
tp972
aa(lp973
F1611228977.652517
aI-80
aI17
aI462
a(I1
I0
I9
I4
I-1
I1
I10
I0
I0
I0
I-3
I0
I6
I2
I3
I6
I5
I-1
I-4
I2
I5
I0
tp974
a(I115
I-33
I12
I94
I34
I94
I-225
I-294
I-275
I-740
I134
I-30
I9
I94
I29
I87
I-1644
I4
I22
tp975
aa(lp976
F1611228977.662709
aI-80
aI17
aI462
a(I-3
I-4
I4
I1
I-2
I0
I2
I-1
I0
I0
I1
I0
I7
I0
I-1
I-2
I3
I4
I-9
I-9
I4
I3
tp977
a(I115
I-32
I14
I94
I33
I95
I-224
I-295
I-276
I-739
I132
I-30
I7
I94
I29
I86
I-1645
I3
I21
tp978
aa(lp979
F1611228977.672528
aI-79
aI17
aI462
a(I-8
I-3
I6
I8
I-1
I-3
I4
I5
I-8
I-6
I4
I5
I-8
I4
I3
I1
I0
I3
I-2
I5
I6
I4
tp980
a(I117
I-31
I13
I94
I34
I95
I-225
I-295
I-276
I-740
I133
I-31
I7
I94
I28
I86
I-1646
I4
I21
tp981
aa(lp982
F1611228977.682385
aI-80
aI16
aI462
a(I1
I2
I-7
I3
I5
I-7
I-3
I10
I0
I1
I-4
I0
I0
I-2
I2
I-2
I0
I2
I2
I-9
I-5
I1
tp983
a(I115
I-32
I14
I95
I33
I95
I-225
I-295
I-275
I-739
I134
I-31
I8
I94
I31
I86
I-1644
I4
I22
tp984
aa(lp985
F1611228977.692745
aI-80
aI17
aI462
a(I3
I-1
I-4
I-2
I4
I-2
I0
I9
I8
I-2
I0
I13
I-1
I-5
I0
I10
I3
I-1
I-7
I8
I6
I0
tp986
a(I116
I-32
I13
I94
I35
I95
I-225
I-294
I-275
I-739
I132
I-30
I7
I93
I29
I86
I-1643
I3
I22
tp987
aa(lp988
F1611228977.702473
aI-79
aI17
aI462
a(I-12
I5
I6
I-1
I-3
I2
I0
I0
I-3
I-11
I-2
I0
I0
I-4
I0
I1
I0
I-2
I0
I1
I0
I-2
tp989
a(I115
I-31
I14
I93
I33
I95
I-225
I-294
I-276
I-740
I132
I-29
I8
I95
I29
I87
I-1645
I2
I21
tp990
aa(lp991
F1611228977.712394
aI-80
aI16
aI462
a(I0
I-3
I-1
I0
I-4
I1
I-4
I-2
I-2
I-2
I0
I3
I4
I9
I8
I-1
I-7
I7
I4
I-3
I-5
I6
tp992
a(I116
I-32
I13
I94
I34
I95
I-224
I-295
I-276
I-740
I133
I-31
I6
I94
I28
I86
I-1646
I3
I21
tp993
aa(lp994
F1611228977.722962
aI-80
aI16
aI462
a(I6
I0
I-8
I-7
I2
I2
I-4
I-4
I9
I6
I-1
I1
I-1
I-7
I-1
I-1
I-3
I-7
I0
I-1
I-3
I-1
tp995
a(I116
I-32
I12
I94
I34
I94
I-225
I-294
I-276
I-739
I133
I-30
I7
I95
I29
I85
I-1645
I3
I22
tp996
aa(lp997
F1611228977.732486
aI-80
aI14
aI462
a(I5
I-6
I1
I3
I0
I-1
I-2
I-7
I0
I-4
I-9
I2
I4
I-6
I-4
I0
I-2
I-5
I-5
I-3
I-1
I4
tp998
a(I115
I-32
I13
I94
I33
I95
I-225
I-294
I-276
I-740
I132
I-30
I7
I94
I29
I87
I-1644
I2
I22
tp999
aa(lp1000
F1611228977.742437
aI-80
aI15
aI462
a(I0
I-2
I-2
I-4
I1
I3
I-9
I-4
I4
I4
I0
I2
I-2
I3
I2
I0
I0
I4
I4
I-3
I0
I7
tp1001
a(I116
I-33
I13
I95
I35
I96
I-225
I-295
I-276
I-739
I134
I-30
I7
I94
I28
I86
I-1646
I4
I22
tp1002
aa(lp1003
F1611228977.752595
aI-80
aI15
aI462
a(I7
I-5
I5
I-3
I2
I-1
I0
I3
I7
I1
I1
I5
I6
I0
I-1
I1
I-2
I0
I0
I-5
I6
I4
tp1004
a(I114
I-32
I13
I96
I33
I96
I-225
I-294
I-275
I-739
I133
I-31
I6
I93
I28
I85
I-1644
I5
I23
tp1005
aa(lp1006
F1611228977.762582
aI-79
aI15
aI462
a(I-4
I-6
I6
I2
I0
I-5
I5
I5
I0
I-7
I-5
I7
I3
I-7
I0
I0
I-1
I-1
I0
I1
I7
I0
tp1007
a(I115
I-31
I14
I95
I35
I95
I-225
I-294
I-276
I-740
I132
I-29
I7
I94
I29
I86
I-1644
I4
I22
tp1008
aa(lp1009
F1611228977.772378
aI-80
aI17
aI462
a(I-1
I1
I5
I-4
I-4
I0
I10
I-11
I1
I4
I3
I3
I-2
I5
I10
I1
I-6
I8
I7
I-5
I-2
I4
tp1010
a(I115
I-33
I12
I95
I34
I94
I-225
I-295
I-275
I-740
I133
I-31
I7
I93
I29
I86
I-1644
I3
I21
tp1011
aa(lp1012
F1611228977.782528
aI-80
aI16
aI462
a(I-1
I0
I-1
I-3
I0
I4
I-5
I1
I3
I3
I0
I4
I-1
I4
I1
I-4
I-1
I2
I3
I-5
I-3
I-5
tp1013
a(I115
I-31
I14
I95
I33
I95
I-225
I-295
I-275
I-739
I132
I-29
I7
I95
I29
I86
I-1644
I4
I22
tp1014
aa(lp1015
F1611228977.792794
aI-80
aI15
aI463
a(I0
I4
I5
I-3
I2
I3
I0
I-4
I-5
I-1
I-3
I2
I0
I0
I8
I0
I-5
I-6
I-7
I3
I0
I-4
tp1016
a(I115
I-32
I15
I96
I35
I96
I-225
I-294
I-275
I-740
I133
I-30
I7
I94
I29
I84
I-1646
I3
I22
tp1017
aa(lp1018
F1611228977.802512
aI-80
aI15
aI462
a(I-4
I1
I-1
I-9
I-3
I0
I4
I0
I2
I0
I0
I0
I0
I4
I7
I-4
I-4
I5
I2
I5
I-1
I-6
tp1019
a(I114
I-30
I13
I96
I34
I94
I-226
I-294
I-276
I-740
I131
I-29
I6
I93
I30
I86
I-1645
I4
I21
tp1020
aa(lp1021
F1611228977.81257
aI-80
aI14
aI462
a(I4
I9
I-10
I-3
I0
I-4
I-3
I1
I-2
I-3
I0
I2
I-6
I-7
I0
I0
I-2
I-7
I-2
I4
I3
I-3
tp1022
a(I114
I-32
I12
I95
I34
I94
I-225
I-296
I-275
I-740
I134
I-29
I8
I93
I29
I86
I-1644
I3
I21
tp1023
aa(lp1024
F1611228977.822707
aI-79
aI16
aI462
a(I-8
I1
I-2
I-1
I-7
I0
I0
I4
I-7
I-3
I-2
I0
I-4
I0
I3
I0
I0
I5
I-2
I-5
I-2
I4
tp1025
a(I115
I-32
I14
I95
I34
I94
I-226
I-295
I-276
I-740
I133
I-30
I8
I93
I29
I86
I-1646
I3
I22
tp1026
aa(lp1027
F1611228977.832341
aI-79
aI16
aI462
a(I2
I-2
I-8
I-5
I5
I-1
I-6
I3
I12
I5
I0
I0
I-1
I-4
I5
I-3
I-3
I3
I11
I-1
I-1
I-2
tp1028
a(I115
I-31
I13
I94
I33
I94
I-225
I-295
I-275
I-739
I133
I-30
I6
I94
I29
I86
I-1643
I3
I21
tp1029
aa(lp1030
F1611228977.842647
aI-80
aI14
aI462
a(I-1
I1
I-6
I-6
I1
I9
I-10
I-1
I4
I-1
I-4
I-2
I0
I0
I2
I-5
I-5
I1
I6
I-3
I-5
I5
tp1031
a(I115
I-32
I14
I95
I34
I96
I-226
I-294
I-276
I-740
I131
I-31
I7
I94
I29
I87
I-1644
I4
I21
tp1032
aa(lp1033
F1611228977.852737
aI-80
aI14
aI462
a(I5
I0
I-9
I-3
I6
I2
I-4
I-7
I15
I2
I-4
I-4
I0
I6
I4
I-4
I-1
I4
I9
I2
I0
I4
tp1034
a(I115
I-31
I13
I95
I35
I94
I-226
I-295
I-275
I-740
I133
I-30
I8
I94
I29
I87
I-1644
I4
I22
tp1035
aa(lp1036
F1611228977.862558
aI-80
aI14
aI462
a(I3
I2
I-1
I-4
I2
I1
I-3
I-2
I4
I5
I-1
I-1
I-2
I1
I6
I-2
I0
I2
I-1
I-2
I3
I1
tp1037
a(I116
I-31
I13
I94
I35
I95
I-225
I-293
I-277
I-739
I133
I-29
I8
I93
I30
I86
I-1644
I3
I22
tp1038
aa(lp1039
F1611228977.872627
aI-80
aI15
aI462
a(I-6
I-2
I6
I-1
I-2
I-7
I3
I9
I-5
I0
I3
I10
I0
I-4
I4
I2
I3
I-1
I-3
I-7
I9
I4
tp1040
a(I114
I-31
I12
I94
I32
I95
I-225
I-295
I-276
I-740
I133
I-32
I7
I94
I29
I86
I-1646
I4
I20
tp1041
aa(lp1042
F1611228977.882701
aI-79
aI16
aI462
a(I-1
I0
I6
I6
I0
I-4
I-3
I11
I0
I-7
I0
I8
I5
I5
I3
I4
I5
I5
I-4
I2
I5
I-4
tp1043
a(I115
I-31
I12
I94
I34
I95
I-225
I-295
I-276
I-739
I132
I-30
I7
I94
I31
I86
I-1644
I4
I22
tp1044
aa(lp1045
F1611228977.892454
aI-80
aI16
aI463
a(I-5
I12
I2
I0
I2
I5
I7
I3
I0
I8
I4
I-2
I-1
I15
I2
I0
I3
I9
I0
I2
I2
I1
tp1046
a(I114
I-31
I12
I95
I34
I96
I-225
I-295
I-276
I-739
I133
I-30
I8
I94
I28
I87
I-1644
I3
I22
tp1047
aa(lp1048
F1611228977.902532
aI-80
aI16
aI461
a(I2
I6
I-1
I1
I0
I0
I0
I10
I-2
I-1
I0
I1
I2
I-2
I0
I1
I5
I-2
I-1
I6
I0
I2
tp1049
a(I115
I-32
I13
I95
I34
I95
I-226
I-295
I-276
I-740
I132
I-29
I7
I93
I30
I87
I-1645
I2
I22
tp1050
aa(lp1051
F1611228977.912754
aI-80
aI16
aI462
a(I1
I-5
I-7
I9
I0
I-3
I0
I2
I-1
I-2
I-2
I0
I1
I4
I-1
I-1
I2
I2
I-3
I-6
I-3
I4
tp1052
a(I116
I-32
I12
I94
I34
I94
I-225
I-294
I-276
I-739
I132
I-30
I8
I94
I29
I87
I-1645
I3
I22
tp1053
aa(lp1054
F1611228977.922447
aI-79
aI16
aI462
a(I3
I-2
I3
I5
I-2
I-3
I3
I-2
I-4
I-1
I0
I3
I-1
I1
I0
I3
I-3
I-2
I2
I0
I-6
I0
tp1055
a(I115
I-32
I12
I95
I34
I96
I-225
I-295
I-276
I-740
I134
I-31
I7
I94
I28
I85
I-1643
I4
I22
tp1056
aa(lp1057
F1611228977.93277
aI-80
aI16
aI462
a(I2
I-6
I1
I-1
I0
I0
I3
I-9
I0
I5
I-1
I-4
I3
I4
I7
I4
I-4
I3
I3
I-2
I-4
I0
tp1058
a(I116
I-32
I13
I94
I34
I96
I-225
I-295
I-275
I-739
I132
I-29
I8
I93
I29
I86
I-1644
I2
I22
tp1059
aa(lp1060
F1611228977.94295
aI-80
aI18
aI462
a(I0
I-3
I3
I1
I9
I4
I-7
I-5
I4
I-4
I-11
I-1
I5
I-3
I1
I-1
I6
I0
I0
I-2
I3
I-1
tp1061
a(I116
I-33
I14
I95
I34
I95
I-225
I-295
I-275
I-740
I133
I-31
I8
I94
I29
I86
I-1643
I4
I22
tp1062
aa(lp1063
F1611228977.952593
aI-80
aI17
aI462
a(I3
I1
I6
I-3
I2
I7
I-4
I0
I-2
I-1
I3
I3
I0
I0
I8
I1
I-5
I5
I2
I-7
I-1
I-2
tp1064
a(I114
I-32
I13
I95
I33
I95
I-225
I-295
I-276
I-739
I133
I-30
I8
I94
I28
I86
I-1646
I4
I21
tp1065
aa(lp1066
F1611228977.962549
aI-80
aI18
aI462
a(I3
I4
I-1
I-6
I10
I3
I0
I0
I0
I3
I-1
I4
I-4
I7
I8
I0
I-2
I9
I-1
I-4
I0
I-5
tp1067
a(I116
I-33
I14
I95
I34
I95
I-225
I-294
I-276
I-740
I132
I-32
I8
I94
I28
I86
I-1644
I3
I22
tp1068
aa(lp1069
F1611228977.972882
aI-80
aI18
aI462
a(I-7
I6
I0
I-1
I2
I-3
I1
I0
I-8
I-2
I10
I1
I-2
I4
I-2
I0
I3
I0
I-2
I3
I5
I0
tp1070
a(I114
I-32
I13
I95
I33
I96
I-225
I-294
I-276
I-740
I133
I-31
I8
I94
I28
I87
I-1645
I4
I22
tp1071
aa(lp1072
F1611228977.982641
aI-80
aI18
aI462
a(I-3
I-9
I-6
I0
I-8
I-8
I0
I1
I-2
I-5
I-2
I3
I2
I-6
I-4
I4
I2
I-4
I-5
I4
I0
I-6
tp1073
a(I116
I-30
I14
I95
I33
I96
I-225
I-294
I-277
I-739
I133
I-30
I6
I94
I29
I86
I-1644
I4
I21
tp1074
aa(lp1075
F1611228977.992802
aI-80
aI17
aI462
a(I-2
I2
I5
I0
I2
I6
I2
I4
I7
I4
I8
I5
I3
I2
I0
I-4
I0
I-1
I8
I5
I-3
I0
tp1076
a(I115
I-32
I14
I94
I34
I94
I-225
I-294
I-276
I-739
I132
I-28
I8
I93
I28
I86
I-1643
I3
I21
tp1077
aa(lp1078
F1611228978.003142
aI-80
aI18
aI462
a(I5
I-3
I-4
I2
I1
I0
I8
I0
I0
I2
I2
I6
I7
I-5
I1
I8
I-3
I0
I6
I3
I6
I3
tp1079
a(I116
I-32
I13
I95
I34
I95
I-225
I-294
I-276
I-739
I134
I-31
I8
I94
I28
I85
I-1645
I2
I20
tp1080
aa(lp1081
F1611228978.01303
aI-80
aI17
aI462
a(I-2
I-2
I5
I0
I-5
I0
I4
I0
I-2
I-5
I-7
I1
I3
I0
I-4
I-1
I0
I0
I-10
I-7
I0
I1
tp1082
a(I115
I-32
I13
I95
I33
I96
I-225
I-296
I-276
I-739
I132
I-30
I8
I93
I29
I86
I-1644
I4
I21
tp1083
aa(lp1084
F1611228978.022919
aI-80
aI16
aI462
a(I-1
I-2
I1
I-7
I-1
I5
I4
I-7
I0
I3
I-1
I0
I0
I-1
I0
I0
I-3
I0
I-2
I4
I1
I-11
tp1085
a(I115
I-31
I12
I94
I32
I95
I-225
I-295
I-276
I-740
I133
I-31
I8
I94
I29
I87
I-1642
I5
I21
tp1086
aa(lp1087
F1611228978.033969
aI-80
aI17
aI462
a(I-3
I3
I1
I-8
I-4
I0
I3
I5
I-1
I-8
I0
I0
I-10
I-7
I4
I2
I-3
I-2
I0
I1
I1
I-4
tp1088
a(I116
I-33
I12
I93
I35
I95
I-225
I-295
I-275
I-739
I132
I-29
I9
I93
I28
I85
I-1645
I4
I21
tp1089
aa(lp1090
F1611228978.042961
aI-80
aI15
aI463
a(I5
I3
I-9
I4
I6
I-3
I-2
I6
I4
I2
I-5
I3
I0
I7
I2
I-5
I2
I3
I5
I-1
I6
I0
tp1091
a(I115
I-31
I13
I95
I34
I96
I-226
I-295
I-276
I-739
I132
I-30
I8
I95
I30
I87
I-1644
I4
I22
tp1092
aa(lp1093
F1611228978.054148
aI-80
aI16
aI463
a(I3
I3
I2
I-4
I7
I3
I0
I0
I4
I9
I9
I-4
I1
I10
I2
I-6
I0
I6
I-2
I5
I0
I4
tp1094
a(I116
I-32
I14
I95
I35
I95
I-225
I-295
I-277
I-740
I132
I-30
I8
I94
I29
I86
I-1645
I4
I21
tp1095
aa(lp1096
F1611228978.062851
aI-80
aI15
aI462
a(I5
I8
I2
I7
I2
I-3
I3
I3
I-4
I0
I5
I-8
I-3
I0
I-4
I-5
I-3
I-6
I-2
I8
I-1
I-3
tp1097
a(I115
I-33
I13
I95
I34
I96
I-226
I-295
I-276
I-739
I132
I-30
I8
I94
I30
I85
I-1644
I4
I22
tp1098
aa(lp1099
F1611228978.072958
aI-80
aI16
aI462
a(I3
I5
I-3
I2
I0
I0
I1
I-4
I0
I7
I0
I-4
I-2
I5
I0
I-6
I0
I-5
I0
I1
I-11
I-9
tp1100
a(I116
I-31
I13
I95
I34
I96
I-225
I-295
I-275
I-739
I131
I-32
I7
I93
I29
I87
I-1644
I4
I23
tp1101
aa(lp1102
F1611228978.083146
aI-79
aI17
aI462
a(I3
I2
I-9
I-4
I2
I6
I-1
I-2
I-1
I6
I1
I-2
I0
I7
I0
I0
I3
I4
I-2
I7
I1
I0
tp1103
a(I115
I-30
I11
I95
I34
I95
I-225
I-295
I-276
I-739
I134
I-30
I7
I94
I28
I86
I-1644
I5
I21
tp1104
aa(lp1105
F1611228978.092909
aI-80
aI16
aI462
a(I0
I4
I-1
I6
I1
I-1
I5
I5
I-4
I-4
I0
I-3
I2
I5
I4
I0
I3
I-1
I2
I3
I-4
I-2
tp1106
a(I115
I-32
I15
I94
I32
I95
I-225
I-295
I-275
I-739
I132
I-30
I8
I94
I30
I86
I-1644
I5
I22
tp1107
aa(lp1108
F1611228978.102913
aI-80
aI17
aI462
a(I2
I7
I-1
I-5
I-1
I-1
I-4
I0
I0
I3
I0
I1
I7
I6
I-6
I2
I2
I2
I-7
I0
I1
I0
tp1109
a(I115
I-32
I12
I95
I35
I95
I-226
I-295
I-276
I-739
I132
I-30
I6
I93
I27
I85
I-1645
I3
I21
tp1110
aa(lp1111
F1611228978.112762
aI-80
aI18
aI463
a(I-3
I3
I-4
I-5
I-1
I3
I-5
I-6
I-2
I-1
I1
I-5
I0
I9
I1
I-2
I5
I0
I-3
I1
I-1
I4
tp1112
a(I116
I-32
I13
I95
I34
I95
I-225
I-295
I-275
I-739
I133
I-30
I7
I95
I29
I87
I-1645
I4
I21
tp1113
aa(lp1114
F1611228978.122819
aI-80
aI20
aI463
a(I-2
I0
I-3
I3
I-6
I-8
I4
I5
I1
I-2
I0
I-2
I0
I-9
I-1
I6
I-2
I-8
I0
I1
I-3
I-2
tp1115
a(I115
I-33
I13
I95
I35
I95
I-224
I-295
I-275
I-739
I131
I-29
I7
I94
I28
I86
I-1644
I3
I20
tp1116
aa(lp1117
F1611228978.13265
aI-80
aI19
aI463
a(I-1
I-2
I-1
I2
I0
I-3
I-5
I0
I-2
I2
I-8
I0
I3
I-1
I-9
I-3
I-2
I-2
I-1
I1
I2
I0
tp1118
a(I116
I-33
I12
I93
I34
I96
I-225
I-295
I-276
I-740
I132
I-31
I7
I94
I28
I86
I-1644
I3
I21
tp1119
aa(lp1120
F1611228978.142612
aI-80
aI19
aI462
a(I-6
I3
I3
I-1
I-6
I0
I9
I-3
I-10
I0
I5
I-7
I-3
I3
I10
I2
I-8
I-5
I7
I3
I-4
I-4
tp1121
a(I115
I-30
I13
I95
I33
I96
I-225
I-295
I-276
I-740
I133
I-31
I8
I93
I29
I87
I-1645
I4
I21
tp1122
aa(lp1123
F1611228978.152695
aI-81
aI16
aI462
a(I2
I3
I-6
I-2
I1
I4
I-5
I-2
I0
I7
I2
I-3
I-3
I3
I1
I1
I1
I1
I0
I-1
I-1
I2
tp1124
a(I116
I-31
I13
I95
I35
I96
I-226
I-293
I-276
I-739
I131
I-31
I8
I93
I29
I87
I-1644
I4
I22
tp1125
aa(lp1126
F1611228978.162879
aI-80
aI16
aI462
a(I1
I-1
I3
I-1
I-4
I2
I7
I-4
I-2
I3
I5
I-3
I2
I2
I0
I0
I-7
I-1
I6
I-2
I-4
I-5
tp1127
a(I115
I-32
I14
I95
I36
I94
I-226
I-295
I-276
I-739
I132
I-30
I8
I94
I28
I87
I-1646
I3
I21
tp1128
aa(lp1129
F1611228978.172604
aI-80
aI16
aI462
a(I-1
I0
I0
I-3
I-2
I4
I2
I-7
I0
I0
I-2
I2
I5
I0
I7
I3
I0
I0
I-2
I0
I4
I-4
tp1130
a(I115
I-32
I13
I94
I34
I95
I-225
I-294
I-276
I-740
I135
I-31
I8
I93
I29
I86
I-1645
I4
I22
tp1131
aa(lp1132
F1611228978.182838
aI-80
aI16
aI463
a(I-7
I-1
I2
I-3
I0
I0
I-2
I4
I8
I-2
I-2
I2
I5
I0
I6
I-6
I-1
I5
I5
I5
I3
I3
tp1133
a(I115
I-31
I11
I95
I35
I95
I-224
I-295
I-277
I-739
I134
I-31
I8
I93
I29
I87
I-1646
I3
I22
tp1134
aa(lp1135
F1611228978.192748
aI-80
aI15
aI462
a(I9
I-2
I-8
I-1
I4
I-6
I-8
I3
I2
I0
I-1
I4
I0
I4
I-3
I-2
I-3
I2
I-6
I-2
I0
I0
tp1136
a(I115
I-31
I12
I95
I34
I95
I-225
I-295
I-275
I-739
I131
I-31
I7
I93
I29
I86
I-1644
I4
I22
tp1137
aa(lp1138
F1611228978.20264
aI-80
aI15
aI462
a(I-4
I-2
I3
I2
I2
I-2
I-3
I6
I-3
I4
I-2
I-7
I-1
I11
I-2
I-5
I5
I11
I-12
I-6
I4
I4
tp1139
a(I116
I-32
I12
I95
I35
I95
I-225
I-294
I-276
I-739
I132
I-30
I6
I94
I28
I86
I-1645
I2
I20
tp1140
aa(lp1141
F1611228978.212821
aI-80
aI15
aI462
a(I-3
I-8
I-4
I3
I-3
I-13
I0
I5
I-2
I2
I0
I-1
I0
I1
I-7
I0
I8
I0
I0
I9
I1
I0
tp1142
a(I114
I-31
I12
I94
I34
I95
I-225
I-294
I-277
I-739
I133
I-29
I7
I94
I29
I87
I-1644
I4
I22
tp1143
aa(lp1144
F1611228978.22269
aI-80
aI14
aI462
a(I-2
I1
I4
I0
I-2
I0
I2
I-1
I2
I2
I0
I-7
I1
I2
I-6
I0
I4
I0
I-2
I1
I-3
I6
tp1145
a(I116
I-32
I13
I93
I33
I94
I-224
I-295
I-275
I-740
I132
I-31
I7
I95
I28
I87
I-1646
I4
I20
tp1146
aa(lp1147
F1611228978.232612
aI-80
aI14
aI462
a(I2
I0
I0
I8
I-4
I-2
I0
I-1
I1
I0
I6
I5
I0
I-3
I2
I-2
I-8
I0
I6
I-8
I-8
I0
tp1148
a(I116
I-32
I13
I95
I33
I94
I-225
I-294
I-277
I-739
I133
I-29
I6
I93
I29
I87
I-1644
I4
I21
tp1149
aa(lp1150
F1611228978.242903
aI-80
aI14
aI463
a(I1
I-6
I-6
I-5
I-3
I1
I-3
I-3
I0
I9
I1
I-1
I-3
I1
I-1
I-6
I-5
I7
I3
I-3
I-3
I-1
tp1151
a(I115
I-30
I13
I95
I34
I97
I-225
I-295
I-275
I-739
I132
I-29
I6
I93
I29
I85
I-1644
I4
I21
tp1152
aa(lp1153
F1611228978.25272
aI-80
aI16
aI462
a(I0
I3
I4
I-6
I0
I3
I-1
I-4
I6
I8
I-1
I1
I5
I0
I8
I-3
I-3
I0
I-4
I-4
I2
I1
tp1154
a(I115
I-31
I12
I95
I34
I95
I-225
I-295
I-276
I-740
I134
I-31
I7
I93
I28
I86
I-1644
I4
I23
tp1155
aa(lp1156
F1611228978.262525
aI-80
aI15
aI462
a(I-6
I0
I-2
I-4
I0
I0
I-4
I5
I3
I-6
I4
I2
I-10
I-4
I6
I-2
I-1
I-5
I-9
I-1
I2
I-1
tp1157
a(I116
I-32
I13
I95
I35
I96
I-226
I-294
I-276
I-740
I132
I-30
I8
I96
I28
I87
I-1644
I4
I21
tp1158
aa(lp1159
F1611228978.272692
aI-80
aI15
aI463
a(I2
I1
I-8
I2
I6
I-5
I0
I5
I-2
I4
I4
I0
I0
I3
I-3
I-5
I-1
I0
I1
I2
I0
I5
tp1160
a(I116
I-32
I14
I94
I35
I96
I-225
I-295
I-275
I-739
I133
I-30
I7
I93
I28
I85
I-1645
I4
I20
tp1161
aa(lp1162
F1611228978.282822
aI-80
aI15
aI462
a(I9
I2
I0
I6
I-2
I-2
I2
I-1
I-7
I1
I1
I-4
I1
I7
I-1
I0
I0
I3
I-9
I-4
I-3
I0
tp1163
a(I115
I-33
I13
I94
I32
I95
I-225
I-295
I-276
I-740
I133
I-32
I8
I95
I28
I87
I-1644
I3
I22
tp1164
aa(lp1165
F1611228978.292578
aI-80
aI14
aI462
a(I0
I-1
I-4
I3
I0
I-5
I-2
I-5
I1
I0
I-6
I-7
I3
I6
I-6
I0
I4
I-1
I-3
I1
I-3
I-3
tp1166
a(I115
I-32
I12
I94
I34
I96
I-224
I-295
I-275
I-739
I133
I-30
I7
I94
I30
I87
I-1645
I3
I22
tp1167
aa(lp1168
F1611228978.303324
aI-79
aI14
aI462
a(I2
I-5
I2
I3
I-3
I0
I2
I-5
I1
I5
I-4
I1
I-3
I-3
I0
I4
I-8
I0
I3
I2
I-4
I4
tp1169
a(I115
I-32
I12
I95
I34
I97
I-226
I-295
I-276
I-739
I133
I-30
I6
I94
I30
I86
I-1644
I4
I21
tp1170
aa(lp1171
F1611228978.312607
aI-79
aI15
aI462
a(I10
I-2
I1
I1
I7
I10
I0
I0
I7
I2
I1
I0
I0
I-3
I0
I0
I-1
I0
I-1
I1
I-4
I5
tp1172
a(I115
I-31
I13
I94
I34
I95
I-225
I-295
I-276
I-739
I132
I-30
I7
I94
I28
I86
I-1643
I5
I22
tp1173
aa(lp1174
F1611228978.322484
aI-80
aI13
aI462
a(I-1
I-3
I6
I0
I-5
I-1
I-6
I-4
I-2
I-9
I-2
I6
I5
I-4
I2
I-7
I-2
I6
I-2
I-4
I6
I0
tp1175
a(I116
I-31
I12
I94
I32
I95
I-226
I-295
I-277
I-739
I132
I-30
I7
I94
I28
I85
I-1644
I3
I22
tp1176
aa(lp1177
F1611228978.33262
aI-80
aI14
aI462
a(I-4
I-5
I-3
I0
I0
I-3
I1
I8
I2
I-2
I-7
I0
I-3
I-5
I0
I-4
I4
I-10
I-9
I-1
I4
I-1
tp1178
a(I116
I-32
I14
I95
I35
I95
I-225
I-293
I-276
I-739
I132
I-30
I5
I94
I28
I86
I-1645
I3
I21
tp1179
aa(lp1180
F1611228978.342789
aI-79
aI14
aI462
a(I-6
I2
I0
I0
I-4
I-10
I0
I4
I-4
I-5
I2
I10
I-10
I0
I1
I0
I3
I0
I-6
I4
I-1
I-1
tp1181
a(I115
I-32
I12
I94
I34
I94
I-225
I-295
I-277
I-739
I132
I-30
I8
I93
I30
I87
I-1644
I4
I21
tp1182
aa(lp1183
F1611228978.352576
aI-80
aI15
aI462
a(I1
I-4
I-2
I3
I-5
I-9
I3
I0
I-4
I1
I5
I4
I-3
I0
I-3
I3
I-2
I3
I8
I-4
I1
I-2
tp1184
a(I115
I-32
I12
I95
I33
I95
I-224
I-295
I-276
I-739
I133
I-29
I7
I93
I29
I85
I-1643
I4
I22
tp1185
aa(lp1186
F1611228978.362998
aI-80
aI13
aI462
a(I2
I-9
I1
I-2
I1
I-3
I2
I1
I0
I4
I-4
I-1
I8
I-1
I-9
I6
I-1
I-1
I3
I7
I5
I0
tp1187
a(I115
I-32
I13
I95
I34
I96
I-226
I-294
I-276
I-739
I133
I-30
I8
I95
I28
I85
I-1644
I3
I23
tp1188
aa(lp1189
F1611228978.372699
aI-79
aI14
aI463
a(I0
I-2
I5
I0
I-7
I-3
I4
I-8
I3
I4
I-9
I4
I4
I5
I-2
I1
I0
I0
I-1
I-4
I0
I1
tp1190
a(I115
I-32
I12
I94
I33
I95
I-225
I-295
I-276
I-739
I133
I-29
I6
I93
I28
I87
I-1644
I3
I22
tp1191
aa(lp1192
F1611228978.38279
aI-80
aI14
aI462
a(I-1
I-3
I5
I2
I0
I6
I4
I-3
I-3
I6
I2
I-4
I-3
I0
I-4
I-1
I-4
I0
I0
I-2
I-1
I5
tp1193
a(I114
I-31
I13
I94
I34
I97
I-225
I-295
I-276
I-740
I132
I-30
I6
I94
I30
I86
I-1643
I5
I23
tp1194
aa(lp1195
F1611228978.392838
aI-79
aI13
aI462
a(I2
I-1
I4
I3
I-5
I-2
I-1
I2
I-2
I-4
I-3
I3
I0
I-1
I-2
I4
I-1
I-8
I-6
I2
I0
I-6
tp1196
a(I114
I-31
I12
I95
I35
I95
I-225
I-295
I-275
I-739
I133
I-32
I7
I94
I30
I86
I-1645
I1
I22
tp1197
aa(lp1198
F1611228978.402764
aI-80
aI14
aI462
a(I2
I0
I4
I0
I-6
I1
I3
I-4
I-2
I1
I1
I3
I5
I-3
I-6
I2
I-1
I-1
I-3
I0
I-1
I-4
tp1199
a(I116
I-32
I13
I95
I35
I96
I-225
I-295
I-276
I-739
I133
I-30
I8
I93
I28
I86
I-1645
I2
I21
tp1200
aa(lp1201
F1611228978.412558
aI-80
aI13
aI462
a(I-8
I-5
I0
I0
I-2
I3
I3
I-7
I0
I2
I0
I-3
I0
I-5
I2
I2
I-2
I-10
I0
I4
I-5
I-3
tp1202
a(I115
I-33
I13
I95
I35
I95
I-225
I-294
I-276
I-739
I134
I-31
I9
I93
I29
I85
I-1644
I3
I22
tp1203
aa(lp1204
F1611228978.42276
aI-80
aI14
aI462
a(I5
I3
I4
I-1
I-1
I3
I0
I-2
I0
I4
I1
I4
I-1
I0
I4
I5
I-5
I2
I9
I-6
I-4
I3
tp1205
a(I115
I-31
I13
I95
I34
I95
I-224
I-294
I-277
I-739
I133
I-29
I7
I94
I30
I86
I-1643
I5
I23
tp1206
aa(lp1207
F1611228978.432846
aI-80
aI16
aI462
a(I3
I0
I3
I2
I2
I-1
I-6
I4
I1
I-2
I3
I8
I2
I-7
I0
I0
I1
I2
I-6
I1
I14
I3
tp1208
a(I115
I-32
I12
I95
I36
I95
I-225
I-295
I-277
I-738
I133
I-31
I8
I93
I28
I87
I-1645
I2
I22
tp1209
aa(lp1210
F1611228978.442732
aI-80
aI16
aI462
a(I-12
I-11
I6
I1
I-5
I-9
I4
I8
I-4
I-11
I-2
I5
I2
I3
I0
I0
I1
I0
I1
I-4
I0
I-1
tp1211
a(I116
I-32
I13
I94
I33
I95
I-225
I-295
I-276
I-739
I133
I-31
I7
I93
I29
I85
I-1645
I3
I21
tp1212
aa(lp1213
F1611228978.452756
aI-80
aI15
aI462
a(I-2
I2
I2
I-12
I5
I2
I0
I-7
I-3
I-5
I6
I5
I-3
I-1
I7
I5
I0
I0
I-8
I1
I0
I-3
tp1214
a(I115
I-32
I13
I95
I34
I95
I-225
I-295
I-276
I-739
I133
I-30
I8
I94
I29
I87
I-1645
I3
I21
tp1215
aa(lp1216
F1611228978.462981
aI-80
aI16
aI462
a(I-4
I4
I6
I-1
I-6
I1
I4
I3
I3
I2
I6
I6
I-1
I-3
I-3
I-3
I5
I5
I-1
I3
I11
I0
tp1217
a(I115
I-33
I14
I94
I33
I95
I-225
I-295
I-276
I-739
I133
I-30
I9
I95
I29
I87
I-1645
I4
I21
tp1218
aa(lp1219
F1611228978.472736
aI-79
aI14
aI462
a(I-5
I0
I3
I-5
I-3
I3
I0
I1
I-5
I4
I4
I1
I-7
I0
I4
I4
I-1
I5
I-3
I4
I1
I-2
tp1220
a(I114
I-31
I12
I95
I34
I95
I-225
I-296
I-275
I-739
I133
I-30
I8
I94
I30
I87
I-1644
I3
I22
tp1221
aa(lp1222
F1611228978.48277
aI-80
aI15
aI462
a(I2
I9
I5
I0
I0
I1
I2
I1
I-1
I-3
I4
I5
I-4
I2
I11
I6
I-3
I1
I4
I5
I-6
I-10
tp1223
a(I115
I-31
I13
I94
I33
I96
I-225
I-295
I-276
I-740
I132
I-32
I7
I93
I28
I86
I-1644
I4
I21
tp1224
aa(lp1225
F1611228978.492802
aI-80
aI15
aI463
a(I0
I2
I-10
I-8
I5
I4
I-1
I0
I2
I2
I8
I6
I-11
I-2
I2
I3
I-2
I-4
I-5
I9
I6
I-5
tp1226
a(I116
I-31
I14
I95
I35
I95
I-225
I-294
I-275
I-739
I133
I-30
I8
I94
I29
I86
I-1644
I3
I21
tp1227
aa(lp1228
F1611228978.502825
aI-80
aI16
aI462
a(I-5
I7
I-3
I0
I-5
I-1
I1
I-3
I-3
I0
I4
I-1
I-3
I8
I-1
I-3
I7
I6
I-6
I-5
I-2
I6
tp1229
a(I115
I-33
I12
I94
I33
I95
I-225
I-294
I-276
I-740
I134
I-29
I7
I94
I30
I87
I-1644
I4
I22
tp1230
aa(lp1231
F1611228978.512881
aI-80
aI17
aI462
a(I3
I-6
I-6
I10
I2
I-6
I0
I13
I5
I7
I-2
I-5
I-2
I8
I-3
I0
I-10
I0
I4
I6
I-6
I-4
tp1232
a(I116
I-33
I13
I95
I34
I95
I-225
I-294
I-276
I-740
I133
I-31
I9
I94
I28
I86
I-1645
I5
I22
tp1233
aa(lp1234
F1611228978.522839
aI-80
aI18
aI463
a(I4
I3
I-3
I-2
I-3
I3
I1
I-7
I-14
I11
I-2
I-5
I-1
I0
I-4
I0
I-4
I0
I0
I6
I4
I1
tp1235
a(I114
I-32
I14
I95
I34
I95
I-226
I-295
I-276
I-739
I133
I-31
I6
I94
I28
I86
I-1644
I4
I21
tp1236
aa(lp1237
F1611228978.532664
aI-79
aI17
aI462
a(I-8
I-10
I1
I5
I-9
I-9
I4
I5
I0
I-4
I-7
I2
I2
I-9
I-10
I0
I0
I-6
I-4
I0
I-6
I0
tp1238
a(I117
I-32
I13
I93
I35
I95
I-225
I-294
I-275
I-739
I133
I-31
I6
I94
I29
I85
I-1643
I5
I23
tp1239
aa(lp1240
F1611228978.542746
aI-80
aI16
aI463
a(I-1
I0
I-1
I-3
I-3
I1
I0
I0
I3
I6
I2
I-2
I-2
I-3
I2
I7
I-8
I-7
I4
I11
I3
I1
tp1241
a(I115
I-31
I11
I94
I35
I95
I-225
I-295
I-275
I-738
I132
I-29
I6
I95
I29
I87
I-1644
I4
I22
tp1242
aa(lp1243
F1611228978.55288
aI-80
aI17
aI462
a(I5
I9
I1
I-8
I-2
I5
I2
I-6
I-4
I4
I5
I5
I-1
I-7
I0
I2
I-3
I0
I7
I3
I-3
I9
tp1244
a(I117
I-32
I15
I95
I35
I95
I-225
I-295
I-275
I-738
I133
I-31
I7
I94
I28
I87
I-1644
I5
I20
tp1245
aa(lp1246
F1611228978.562872
aI-80
aI15
aI462
a(I1
I1
I-4
I-5
I0
I4
I-7
I-5
I2
I-1
I-2
I4
I0
I3
I2
I-1
I-7
I2
I-2
I-7
I-4
I2
tp1247
a(I115
I-32
I13
I94
I34
I95
I-225
I-294
I-275
I-739
I131
I-30
I6
I93
I28
I86
I-1644
I5
I22
tp1248
aa(lp1249
F1611228978.572701
aI-80
aI14
aI461
a(I-7
I-7
I0
I-1
I-1
I-1
I-5
I-1
I1
I-9
I-6
I4
I-7
I-8
I0
I0
I1
I0
I-11
I-3
I8
I-7
tp1250
a(I115
I-33
I12
I95
I34
I94
I-225
I-295
I-276
I-739
I134
I-30
I8
I94
I29
I86
I-1644
I4
I22
tp1251
aa(lp1252
F1611228978.582798
aI-80
aI14
aI462
a(I-7
I0
I0
I-7
I-6
I4
I3
I-3
I-6
I-1
I0
I0
I-8
I6
I6
I-6
I-1
I5
I-5
I-2
I0
I-6
tp1253
a(I116
I-30
I13
I96
I33
I95
I-225
I-295
I-276
I-739
I132
I-30
I6
I94
I29
I86
I-1643
I4
I22
tp1254
aa(lp1255
F1611228978.592735
aI-80
aI15
aI462
a(I-6
I0
I3
I-6
I-8
I-1
I7
I5
I-5
I-3
I6
I5
I-15
I1
I6
I2
I-7
I2
I3
I9
I0
I-8
tp1256
a(I114
I-33
I12
I95
I35
I95
I-226
I-294
I-277
I-740
I132
I-31
I8
I93
I30
I87
I-1643
I3
I22
tp1257
aa(lp1258
F1611228978.602576
aI-80
aI15
aI462
a(I2
I6
I-7
I-6
I5
I0
I0
I0
I6
I-2
I-2
I2
I5
I-2
I-3
I-5
I5
I1
I-9
I0
I-5
I-4
tp1259
a(I115
I-32
I14
I94
I34
I96
I-225
I-295
I-275
I-740
I133
I-30
I7
I94
I29
I85
I-1643
I4
I21
tp1260
aa(lp1261
F1611228978.612803
aI-80
aI14
aI462
a(I4
I-3
I-12
I0
I3
I-3
I-2
I6
I3
I0
I-3
I5
I1
I8
I-1
I-3
I2
I-5
I-8
I1
I-1
I-8
tp1262
a(I115
I-32
I13
I95
I34
I95
I-225
I-294
I-275
I-739
I131
I-31
I8
I95
I28
I87
I-1645
I2
I22
tp1263
aa(lp1264
F1611228978.622655
aI-80
aI13
aI462
a(I-3
I-1
I-1
I8
I-5
I-7
I-3
I4
I-3
I1
I-2
I4
I-2
I-6
I-5
I0
I3
I-2
I-3
I3
I8
I3
tp1265
a(I114
I-31
I14
I95
I34
I93
I-225
I-295
I-276
I-739
I132
I-31
I9
I94
I29
I87
I-1644
I4
I21
tp1266
aa(lp1267
F1611228978.632529
aI-80
aI14
aI462
a(I3
I-2
I-5
I6
I5
I0
I-8
I6
I0
I8
I3
I4
I-2
I5
I3
I0
I2
I3
I0
I1
I-6
I-4
tp1268
a(I114
I-32
I12
I95
I33
I96
I-225
I-294
I-276
I-739
I133
I-29
I8
I93
I29
I85
I-1644
I4
I22
tp1269
aa(lp1270
F1611228978.642975
aI-80
aI14
aI463
a(I7
I2
I-7
I2
I6
I0
I-6
I-5
I0
I3
I-1
I-9
I0
I3
I-3
I-5
I1
I3
I-4
I-11
I-5
I2
tp1271
a(I116
I-31
I11
I95
I33
I95
I-225
I-295
I-276
I-740
I133
I-31
I9
I93
I31
I87
I-1643
I5
I22
tp1272
aa(lp1273
F1611228978.652824
aI-80
aI14
aI462
a(I-3
I-7
I-11
I-1
I5
I-9
I-8
I1
I-1
I-2
I-3
I-5
I0
I10
I0
I-6
I-3
I10
I-3
I1
I0
I-1
tp1274
a(I116
I-31
I14
I94
I34
I95
I-225
I-295
I-276
I-740
I133
I-31
I8
I93
I28
I87
I-1643
I3
I21
tp1275
aa(lp1276
F1611228978.662696
aI-80
aI13
aI461
a(I3
I2
I-2
I4
I-1
I-3
I3
I4
I-3
I4
I6
I0
I0
I1
I-4
I-1
I-3
I-4
I-7
I-1
I1
I-1
tp1277
a(I115
I-33
I13
I95
I35
I95
I-224
I-295
I-276
I-739
I132
I-29
I8
I93
I30
I86
I-1644
I2
I21
tp1278
aa(lp1279
F1611228978.672781
aI-80
aI14
aI462
a(I0
I0
I0
I3
I-5
I-3
I4
I4
I0
I0
I-4
I0
I3
I0
I-7
I0
I1
I0
I-6
I0
I0
I-4
tp1280
a(I115
I-31
I13
I94
I34
I95
I-225
I-295
I-277
I-739
I131
I-31
I7
I94
I29
I85
I-1645
I3
I21
tp1281
aa(lp1282
F1611228978.682768
aI-80
aI15
aI463
a(I1
I0
I2
I0
I-14
I-6
I1
I2
I-4
I3
I5
I4
I3
I-5
I-1
I8
I-1
I-6
I-1
I9
I2
I-5
tp1283
a(I114
I-31
I14
I95
I34
I95
I-225
I-295
I-276
I-740
I133
I-30
I6
I93
I28
I86
I-1644
I4
I22
tp1284
aa(lp1285
F1611228978.69276
aI-80
aI15
aI462
a(I-5
I0
I0
I-3
I-6
I-1
I11
I-8
I-7
I3
I0
I0
I3
I2
I-3
I0
I-3
I-4
I1
I7
I-2
I-7
tp1286
a(I114
I-32
I12
I95
I35
I96
I-225
I-294
I-276
I-739
I132
I-30
I8
I93
I29
I87
I-1644
I3
I22
tp1287
aa(lp1288
F1611228978.702926
aI-79
aI15
aI462
a(I-2
I7
I0
I-8
I-7
I-1
I-2
I-8
I-2
I7
I8
I5
I1
I0
I5
I0
I-1
I-4
I-4
I4
I0
I1
tp1289
a(I115
I-31
I13
I95
I34
I96
I-224
I-295
I-276
I-739
I132
I-30
I9
I94
I29
I85
I-1644
I3
I22
tp1290
aa(lp1291
F1611228978.712713
aI-80
aI15
aI463
a(I1
I0
I1
I6
I0
I2
I6
I0
I2
I-1
I0
I1
I7
I2
I-4
I-5
I-2
I2
I-2
I-1
I0
I5
tp1292
a(I115
I-31
I13
I95
I34
I96
I-225
I-294
I-276
I-740
I133
I-30
I8
I93
I29
I85
I-1644
I3
I22
tp1293
aa(lp1294
F1611228978.722583
aI-80
aI15
aI462
a(I8
I-2
I3
I3
I-2
I-4
I-5
I4
I4
I0
I-7
I-2
I2
I0
I-6
I-1
I10
I-2
I-11
I0
I3
I-7
tp1295
a(I116
I-33
I14
I95
I33
I95
I-225
I-295
I-275
I-738
I133
I-32
I6
I94
I28
I86
I-1644
I3
I22
tp1296
aa(lp1297
F1611228978.733026
aI-80
aI16
aI462
a(I-9
I-4
I7
I1
I-4
I2
I10
I2
I0
I-1
I1
I5
I-1
I-1
I-2
I9
I4
I0
I-1
I2
I-3
I1
tp1298
a(I116
I-32
I14
I93
I34
I94
I-225
I-295
I-275
I-740
I132
I-30
I8
I93
I29
I85
I-1645
I4
I22
tp1299
aa(lp1300
F1611228978.742738
aI-80
aI17
aI463
a(I-2
I-6
I-3
I4
I3
I-2
I-3
I12
I11
I7
I0
I3
I14
I1
I-7
I1
I9
I4
I-4
I0
I4
I7
tp1301
a(I115
I-31
I12
I95
I35
I95
I-225
I-295
I-276
I-739
I133
I-30
I7
I95
I29
I86
I-1645
I3
I23
tp1302
aa(lp1303
F1611228978.752593
aI-80
aI16
aI462
a(I3
I0
I2
I9
I3
I0
I5
I6
I2
I5
I4
I3
I3
I7
I4
I5
I4
I-2
I0
I9
I-1
I-2
tp1304
a(I116
I-31
I12
I95
I34
I96
I-226
I-294
I-276
I-739
I132
I-30
I7
I93
I30
I86
I-1644
I4
I21
tp1305
aa(lp1306
F1611228978.762935
aI-79
aI15
aI462
a(I0
I3
I-1
I3
I-14
I-1
I4
I3
I-2
I5
I5
I6
I5
I-4
I3
I8
I0
I0
I6
I2
I-2
I6
tp1307
a(I116
I-32
I12
I95
I33
I96
I-225
I-295
I-276
I-739
I133
I-29
I8
I94
I30
I86
I-1644
I3
I20
tp1308
aa(lp1309
F1611228978.772765
aI-80
aI15
aI462
a(I1
I-2
I-1
I2
I0
I-6
I-3
I4
I1
I8
I1
I2
I3
I7
I0
I-1
I2
I5
I3
I3
I-4
I3
tp1310
a(I115
I-31
I13
I95
I33
I96
I-225
I-295
I-277
I-739
I133
I-31
I9
I94
I29
I87
I-1644
I3
I21
tp1311
aa(lp1312
F1611228978.782582
aI-80
aI16
aI462
a(I6
I0
I-9
I0
I2
I1
I4
I6
I5
I5
I1
I3
I-1
I5
I7
I3
I2
I3
I-3
I1
I0
I-7
tp1313
a(I115
I-32
I13
I94
I33
I95
I-226
I-296
I-276
I-739
I133
I-30
I7
I95
I29
I87
I-1645
I4
I21
tp1314
aa(lp1315
F1611228978.792889
aI-80
aI16
aI463
a(I3
I2
I0
I-5
I-1
I1
I-4
I-4
I-2
I-8
I1
I3
I-5
I-3
I1
I-4
I0
I-3
I-7
I0
I-2
I-10
tp1316
a(I114
I-32
I14
I95
I34
I94
I-225
I-295
I-276
I-740
I133
I-29
I8
I93
I31
I85
I-1644
I2
I22
tp1317
aa(lp1318
F1611228978.80276
aI-80
aI18
aI462
a(I-6
I1
I-2
I-1
I-1
I-3
I-1
I0
I-1
I-3
I-4
I2
I-3
I0
I0
I-5
I3
I1
I-3
I-2
I0
I-4
tp1319
a(I114
I-31
I13
I94
I35
I96
I-225
I-295
I-275
I-739
I132
I-31
I8
I94
I30
I85
I-1642
I4
I21
tp1320
aa(lp1321
F1611228978.812583
aI-80
aI17
aI462
a(I6
I0
I-5
I-4
I5
I-4
I-4
I-1
I0
I1
I-1
I-1
I-7
I2
I3
I0
I4
I2
I0
I7
I-1
I-3
tp1322
a(I115
I-33
I12
I95
I34
I95
I-225
I-295
I-276
I-740
I132
I-30
I8
I92
I28
I86
I-1644
I3
I22
tp1323
aa(lp1324
F1611228978.82278
aI-80
aI18
aI462
a(I0
I5
I-5
I6
I0
I-5
I8
I4
I-6
I0
I7
I1
I0
I7
I-1
I1
I3
I1
I-8
I-2
I2
I7
tp1325
a(I116
I-32
I13
I94
I35
I96
I-225
I-295
I-276
I-740
I132
I-30
I8
I95
I29
I86
I-1645
I4
I21
tp1326
aa(lp1327
F1611228978.832725
aI-80
aI16
aI463
a(I-2
I-3
I4
I10
I0
I-5
I0
I9
I-2
I-2
I-5
I-1
I3
I1
I-4
I0
I8
I1
I-7
I-1
I1
I1
tp1328
a(I115
I-32
I14
I94
I33
I95
I-225
I-294
I-276
I-739
I132
I-30
I7
I93
I29
I85
I-1644
I4
I23
tp1329
aa(lp1330
F1611228978.842516
aI-80
aI15
aI463
a(I0
I-7
I-8
I-1
I-6
I-3
I4
I0
I-4
I4
I0
I-4
I2
I-2
I-2
I1
I-6
I-4
I-7
I2
I-1
I-6
tp1331
a(I115
I-31
I13
I95
I33
I95
I-225
I-295
I-276
I-740
I133
I-30
I7
I94
I29
I86
I-1644
I4
I20
tp1332
aa(lp1333
F1611228978.852843
aI-80
aI14
aI462
a(I1
I-2
I0
I-1
I-7
I-1
I4
I-1
I1
I0
I1
I9
I4
I-4
I-3
I3
I1
I-2
I3
I4
I1
I1
tp1334
a(I114
I-31
I13
I96
I35
I95
I-225
I-294
I-276
I-739
I133
I-31
I9
I94
I29
I85
I-1643
I3
I22
tp1335
aa(lp1336
F1611228978.863148
aI-80
aI13
aI462
a(I0
I-4
I1
I-2
I2
I0
I-1
I8
I4
I2
I-7
I4
I2
I-6
I-4
I0
I0
I-1
I-4
I-3
I0
I0
tp1337
a(I115
I-32
I15
I95
I35
I96
I-225
I-294
I-276
I-740
I133
I-30
I6
I96
I28
I86
I-1644
I3
I20
tp1338
aa(lp1339
F1611228978.872504
aI-80
aI13
aI462
a(I-1
I-1
I3
I-7
I-5
I-5
I3
I4
I0
I-1
I3
I3
I-3
I-9
I5
I4
I1
I0
I0
I-1
I5
I0
tp1340
a(I115
I-32
I14
I95
I33
I95
I-225
I-295
I-276
I-740
I132
I-30
I8
I93
I29
I86
I-1645
I4
I20
tp1341
aa(lp1342
F1611228978.882735
aI-80
aI14
aI462
a(I-6
I-3
I14
I2
I-6
I-5
I8
I8
I-1
I-3
I5
I11
I0
I-2
I1
I0
I-4
I-1
I-1
I3
I7
I5
tp1343
a(I114
I-32
I13
I95
I34
I96
I-225
I-295
I-276
I-739
I134
I-31
I6
I93
I29
I87
I-1644
I3
I21
tp1344
aa(lp1345
F1611228978.892756
aI-79
aI14
aI462
a(I5
I1
I0
I0
I2
I2
I-2
I-1
I-3
I5
I0
I-2
I0
I3
I8
I-1
I3
I0
I3
I-1
I0
I2
tp1346
a(I116
I-32
I12
I95
I35
I96
I-226
I-296
I-276
I-739
I133
I-31
I7
I94
I29
I87
I-1644
I4
I23
tp1347
aa(lp1348
F1611228978.9027
aI-79
aI13
aI463
a(I1
I-4
I6
I-7
I-6
I2
I-2
I-3
I-7
I0
I0
I-1
I-3
I-4
I1
I0
I0
I0
I2
I-2
I3
I1
tp1349
a(I116
I-32
I13
I94
I34
I95
I-226
I-295
I-276
I-739
I132
I-31
I6
I94
I29
I88
I-1644
I3
I21
tp1350
aa(lp1351
F1611228978.91276
aI-80
aI14
aI462
a(I-2
I0
I-2
I-6
I3
I0
I0
I-2
I2
I7
I-5
I-6
I5
I0
I4
I-5
I-2
I7
I0
I-4
I1
I4
tp1352
a(I116
I-32
I14
I95
I33
I95
I-225
I-295
I-276
I-739
I132
I-30
I8
I94
I28
I87
I-1643
I3
I21
tp1353
aa(lp1354
F1611228978.922881
aI-80
aI14
aI461
a(I-2
I-8
I-1
I-1
I-2
I3
I4
I-2
I1
I-1
I5
I-1
I-2
I-2
I6
I-2
I-8
I-3
I6
I2
I-1
I-4
tp1355
a(I115
I-31
I13
I95
I34
I94
I-226
I-294
I-276
I-739
I132
I-30
I6
I94
I29
I86
I-1644
I3
I22
tp1356
aa(lp1357
F1611228978.932691
aI-80
aI14
aI462
a(I-3
I-2
I-2
I0
I3
I0
I-5
I5
I-3
I-1
I-1
I-2
I5
I-4
I-4
I2
I0
I2
I-1
I-1
I0
I5
tp1358
a(I116
I-31
I15
I96
I35
I94
I-225
I-295
I-276
I-739
I133
I-30
I8
I93
I31
I87
I-1644
I3
I22
tp1359
aa(lp1360
F1611228978.942824
aI-80
aI14
aI462
a(I3
I-9
I-4
I4
I3
I1
I1
I4
I2
I0
I-2
I6
I1
I-6
I-2
I6
I-1
I-4
I-2
I-3
I3
I0
tp1361
a(I114
I-30
I13
I95
I34
I95
I-226
I-294
I-277
I-738
I131
I-30
I7
I93
I29
I86
I-1644
I3
I22
tp1362
aa(lp1363
F1611228978.952933
aI-80
aI14
aI463
a(I-9
I1
I9
I-3
I-8
I-7
I4
I0
I0
I-5
I0
I4
I-4
I-8
I-5
I-5
I3
I1
I-5
I-3
I4
I-1
tp1364
a(I116
I-33
I14
I94
I33
I96
I-225
I-295
I-275
I-740
I132
I-30
I7
I95
I28
I87
I-1645
I5
I21
tp1365
aa(lp1366
F1611228978.962802
aI-80
aI15
aI462
a(I-10
I-3
I-6
I-2
I5
I3
I0
I1
I3
I0
I-1
I-2
I-5
I-2
I8
I0
I-6
I-2
I0
I4
I-1
I-4
tp1367
a(I115
I-32
I13
I93
I34
I95
I-225
I-295
I-276
I-738
I133
I-30
I8
I95
I29
I87
I-1644
I3
I20
tp1368
aa(lp1369
F1611228978.972983
aI-80
aI14
aI462
a(I4
I5
I-2
I-10
I3
I10
I3
I0
I11
I1
I4
I3
I-8
I-2
I9
I4
I6
I4
I2
I2
I4
I0
tp1370
a(I116
I-32
I13
I94
I35
I95
I-225
I-293
I-277
I-739
I132
I-31
I7
I93
I27
I85
I-1643
I4
I21
tp1371
aa(lp1372
F1611228978.983514
aI-80
aI13
aI463
a(I2
I3
I0
I0
I15
I2
I-8
I-2
I10
I-4
I-3
I1
I11
I-1
I-4
I1
I4
I16
I0
I-4
I5
I6
tp1373
a(I116
I-32
I12
I94
I34
I97
I-226
I-295
I-277
I-740
I132
I-31
I8
I93
I29
I87
I-1644
I4
I21
tp1374
aa(lp1375
F1611228978.992815
aI-80
aI13
aI462
a(I3
I-4
I-1
I-1
I3
I-5
I-5
I0
I5
I-2
I0
I12
I5
I0
I4
I7
I1
I0
I0
I1
I2
I-4
tp1376
a(I115
I-31
I13
I96
I34
I95
I-225
I-295
I-275
I-739
I134
I-31
I6
I93
I29
I86
I-1645
I4
I22
tp1377
aa(lp1378
F1611228979.002751
aI-80
aI17
aI462
a(I-7
I1
I8
I-2
I-2
I6
I5
I2
I-5
I-2
I5
I11
I1
I-2
I8
I10
I-5
I-2
I3
I6
I5
I-1
tp1379
a(I114
I-33
I14
I96
I34
I96
I-225
I-295
I-276
I-739
I132
I-30
I8
I94
I29
I86
I-1643
I3
I22
tp1380
aa(lp1381
F1611228979.013008
aI-80
aI15
aI462
a(I0
I3
I2
I-1
I-1
I0
I1
I1
I5
I2
I-7
I0
I0
I0
I-4
I-4
I0
I-4
I-3
I0
I4
I-2
tp1382
a(I115
I-32
I13
I94
I35
I97
I-225
I-294
I-275
I-740
I133
I-29
I9
I94
I29
I87
I-1644
I3
I21
tp1383
aa(lp1384
F1611228979.02269
aI-80
aI14
aI462
a(I2
I-3
I2
I1
I-3
I4
I8
I-4
I-2
I3
I2
I-3
I-1
I4
I5
I7
I1
I-2
I2
I0
I1
I-2
tp1385
a(I115
I-31
I12
I95
I34
I95
I-225
I-295
I-276
I-740
I132
I-29
I7
I95
I29
I85
I-1643
I3
I22
tp1386
aa(lp1387
F1611228979.032739
aI-80
aI16
aI462
a(I-1
I0
I-1
I0
I3
I0
I-1
I3
I1
I5
I-3
I1
I4
I12
I3
I-5
I1
I10
I2
I-5
I-5
I2
tp1388
a(I115
I-32
I12
I95
I33
I95
I-225
I-295
I-276
I-739
I132
I-30
I8
I94
I29
I86
I-1645
I2
I22
tp1389
aa(lp1390
F1611228979.043139
aI-80
aI15
aI462
a(I1
I-6
I-10
I-4
I5
I0
I0
I-1
I-5
I0
I2
I-4
I-7
I13
I12
I-2
I-8
I0
I5
I-1
I-5
I-2
tp1391
a(I114
I-31
I12
I94
I34
I96
I-225
I-294
I-275
I-740
I132
I-30
I7
I94
I28
I87
I-1644
I3
I21
tp1392
aa(lp1393
F1611228979.052671
aI-80
aI17
aI463
a(I1
I9
I0
I-5
I-2
I4
I3
I-2
I-8
I0
I5
I0
I-3
I4
I8
I0
I0
I2
I-6
I-7
I0
I2
tp1394
a(I115
I-32
I13
I96
I34
I96
I-226
I-295
I-277
I-739
I132
I-31
I7
I93
I28
I86
I-1643
I4
I21
tp1395
aa(lp1396
F1611228979.062872
aI-80
aI15
aI463
a(I3
I1
I0
I3
I0
I-10
I0
I7
I0
I-4
I3
I1
I-2
I2
I-7
I0
I4
I2
I-9
I-5
I1
I-5
tp1397
a(I115
I-32
I12
I94
I34
I96
I-225
I-295
I-275
I-740
I133
I-31
I6
I93
I29
I86
I-1644
I4
I22
tp1398
aa(lp1399
F1611228979.072893
aI-80
aI15
aI462
a(I1
I-3
I-8
I0
I3
I-3
I2
I-1
I-3
I5
I0
I-5
I-2
I0
I-2
I1
I0
I-4
I0
I6
I1
I-15
tp1400
a(I116
I-32
I12
I95
I35
I96
I-225
I-295
I-276
I-739
I133
I-30
I7
I93
I28
I85
I-1644
I3
I21
tp1401
aa(lp1402
F1611228979.082705
aI-80
aI15
aI462
a(I-4
I7
I-6
I-9
I-5
I4
I7
I-8
I-1
I7
I6
I-2
I2
I5
I4
I-1
I-2
I-1
I3
I-1
I-5
I0
tp1403
a(I114
I-31
I13
I95
I34
I94
I-226
I-295
I-276
I-739
I133
I-30
I8
I93
I28
I85
I-1644
I4
I20
tp1404
aa(lp1405
F1611228979.092713
aI-80
aI15
aI462
a(I4
I4
I-3
I7
I7
I0
I1
I-2
I3
I3
I2
I-2
I0
I6
I-4
I-2
I-2
I-5
I0
I2
I-6
I-3
tp1406
a(I115
I-33
I12
I95
I34
I96
I-225
I-295
I-276
I-739
I133
I-30
I8
I93
I30
I86
I-1642
I4
I22
tp1407
aa(lp1408
F1611228979.102864
aI-80
aI15
aI463
a(I0
I3
I-11
I-1
I0
I6
I-6
I-11
I1
I8
I-5
I0
I7
I8
I0
I0
I3
I10
I3
I-2
I2
I8
tp1409
a(I115
I-32
I13
I94
I33
I96
I-225
I-294
I-275
I-738
I133
I-30
I8
I93
I29
I87
I-1644
I4
I22
tp1410
aa(lp1411
F1611228979.112709
aI-80
aI16
aI462
a(I8
I-6
I0
I12
I6
I0
I0
I4
I6
I8
I0
I-1
I-3
I1
I-5
I1
I4
I0
I0
I0
I-9
I0
tp1412
a(I115
I-33
I14
I95
I35
I96
I-225
I-294
I-275
I-740
I132
I-29
I6
I92
I29
I85
I-1643
I4
I21
tp1413
aa(lp1414
F1611228979.122618
aI-79
aI18
aI463
a(I2
I3
I1
I5
I1
I3
I2
I-4
I0
I10
I-2
I-1
I6
I8
I-2
I-1
I5
I5
I-1
I-1
I3
I5
tp1415
a(I117
I-32
I14
I95
I35
I96
I-226
I-293
I-275
I-740
I133
I-31
I6
I94
I28
I85
I-1644
I2
I22
tp1416
aa(lp1417
F1611228979.133029
aI-80
aI17
aI463
a(I-9
I-6
I5
I8
I-10
I3
I4
I8
I-8
I0
I2
I3
I-6
I-2
I-2
I7
I-1
I3
I2
I-1
I-6
I2
tp1418
a(I116
I-32
I13
I95
I34
I95
I-226
I-294
I-276
I-740
I132
I-29
I8
I93
I30
I87
I-1644
I2
I21
tp1419
aa(lp1420
F1611228979.14269
aI-80
aI16
aI462
a(I0
I-10
I-3
I4
I-3
I4
I0
I-1
I7
I6
I0
I-5
I0
I3
I2
I-7
I-12
I5
I8
I-5
I-5
I3
tp1421
a(I114
I-32
I13
I94
I35
I95
I-225
I-295
I-275
I-739
I134
I-30
I7
I94
I28
I87
I-1644
I4
I22
tp1422
aa(lp1423
F1611228979.152593
aI-80
aI15
aI462
a(I6
I-4
I0
I-3
I0
I0
I0
I0
I0
I4
I-5
I-2
I6
I0
I7
I2
I1
I5
I2
I-1
I3
I1
tp1424
a(I115
I-31
I13
I95
I33
I96
I-225
I-294
I-276
I-739
I132
I-29
I7
I94
I29
I86
I-1645
I2
I21
tp1425
aa(lp1426
F1611228979.163749
aI-79
aI17
aI462
a(I3
I-2
I1
I-1
I0
I5
I0
I0
I3
I10
I-7
I-1
I4
I5
I4
I3
I0
I13
I7
I-2
I-4
I6
tp1427
a(I116
I-31
I13
I96
I35
I97
I-225
I-295
I-276
I-739
I131
I-31
I8
I94
I29
I86
I-1645
I3
I20
tp1428
aa(lp1429
F1611228979.172692
aI-80
aI17
aI462
a(I2
I-1
I6
I2
I2
I6
I0
I-5
I3
I9
I2
I0
I4
I15
I5
I-2
I-2
I3
I10
I-2
I-3
I7
tp1430
a(I115
I-32
I14
I96
I33
I97
I-226
I-295
I-276
I-739
I133
I-29
I7
I93
I29
I86
I-1644
I4
I21
tp1431
aa(lp1432
F1611228979.182579
aI-80
aI14
aI462
a(I0
I-4
I0
I4
I4
I5
I3
I4
I0
I1
I2
I3
I-1
I1
I-3
I0
I1
I0
I-6
I0
I3
I6
tp1433
a(I115
I-32
I13
I95
I34
I96
I-226
I-295
I-277
I-739
I133
I-31
I6
I95
I29
I85
I-1644
I2
I21
tp1434
aa(lp1435
F1611228979.19341
aI-80
aI16
aI463
a(I-1
I-1
I0
I10
I4
I-8
I1
I10
I3
I-4
I0
I3
I3
I1
I0
I1
I7
I-2
I-7
I-1
I5
I-2
tp1436
a(I115
I-32
I13
I94
I34
I95
I-225
I-295
I-276
I-739
I132
I-30
I6
I95
I29
I86
I-1644
I3
I21
tp1437
aa(lp1438
F1611228979.202709
aI-80
aI14
aI462
a(I-2
I-4
I-1
I-2
I-1
I-10
I0
I6
I-4
I-7
I3
I-2
I-5
I2
I-2
I-5
I1
I-4
I-7
I0
I-7
I-1
tp1439
a(I115
I-32
I14
I94
I35
I96
I-225
I-295
I-276
I-740
I132
I-30
I8
I95
I29
I87
I-1644
I2
I20
tp1440
aa(lp1441
F1611228979.212887
aI-79
aI16
aI462
a(I3
I-4
I-10
I0
I-1
I2
I-3
I-5
I-6
I5
I2
I0
I-5
I1
I10
I3
I-7
I-7
I9
I6
I-9
I-4
tp1442
a(I115
I-32
I11
I94
I35
I96
I-225
I-293
I-277
I-739
I133
I-32
I7
I93
I28
I85
I-1642
I4
I21
tp1443
aa(lp1444
F1611228979.22283
aI-79
aI17
aI462
a(I3
I6
I-6
I-12
I-2
I1
I-4
I-4
I-1
I1
I3
I-7
I-8
I-1
I2
I-7
I-1
I4
I1
I-7
I-4
I3
tp1445
a(I115
I-32
I12
I95
I35
I95
I-225
I-295
I-276
I-740
I133
I-31
I7
I93
I28
I86
I-1644
I4
I21
tp1446
aa(lp1447
F1611228979.232566
aI-80
aI16
aI462
a(I5
I0
I-1
I-1
I4
I-4
I-3
I11
I3
I0
I-2
I0
I2
I-2
I0
I0
I0
I-2
I-3
I0
I5
I2
tp1448
a(I115
I-31
I13
I96
I34
I96
I-226
I-294
I-277
I-739
I132
I-31
I7
I94
I29
I85
I-1643
I3
I21
tp1449
aa(lp1450
F1611228979.242423
aI-80
aI17
aI462
a(I-7
I3
I-4
I0
I2
I-10
I-3
I6
I-1
I-2
I0
I2
I6
I5
I0
I-4
I11
I4
I-2
I1
I4
I9
tp1451
a(I114
I-33
I14
I96
I33
I96
I-225
I-295
I-275
I-740
I134
I-30
I8
I94
I28
I86
I-1644
I4
I21
tp1452
aa(lp1453
F1611228979.253239
aI-80
aI15
aI462
a(I-1
I-7
I5
I6
I3
I-5
I0
I5
I5
I-7
I0
I4
I2
I-3
I-5
I0
I6
I4
I-12
I-3
I11
I5
tp1454
a(I115
I-32
I14
I94
I34
I96
I-226
I-295
I-274
I-739
I132
I-29
I8
I95
I29
I86
I-1643
I4
I22
tp1455
aa(lp1456
F1611228979.262622
aI-80
aI16
aI462
a(I-8
I-5
I10
I2
I-5
I-6
I5
I6
I-3
I-10
I0
I7
I0
I-1
I4
I0
I-1
I-2
I-3
I-3
I2
I1
tp1457
a(I114
I-32
I12
I95
I33
I95
I-225
I-294
I-277
I-739
I132
I-31
I7
I92
I29
I85
I-1643
I4
I22
tp1458
aa(lp1459
F1611228979.272611
aI-80
aI14
aI462
a(I0
I-1
I-2
I-5
I-2
I-8
I-3
I4
I2
I-6
I-1
I12
I3
I-2
I0
I11
I9
I-6
I-15
I0
I6
I-6
tp1460
a(I114
I-32
I13
I95
I34
I95
I-225
I-295
I-276
I-739
I132
I-31
I8
I94
I29
I85
I-1643
I4
I22
tp1461
aa(lp1462
F1611228979.283459
aI-80
aI15
aI461
a(I-13
I-5
I6
I-8
I-4
I-6
I1
I3
I-7
I-10
I0
I-4
I-5
I0
I-2
I-7
I-1
I3
I0
I-8
I-3
I3
tp1463
a(I115
I-31
I13
I95
I33
I96
I-225
I-295
I-276
I-739
I132
I-30
I7
I94
I28
I86
I-1644
I4
I22
tp1464
aa(lp1465
F1611228979.292587
aI-80
aI13
aI462
a(I-3
I-2
I-1
I-2
I-5
I-2
I-3
I1
I-1
I0
I2
I5
I1
I-4
I0
I-4
I-4
I0
I-3
I-3
I2
I-8
tp1466
a(I116
I-31
I12
I95
I33
I94
I-225
I-294
I-277
I-739
I132
I-30
I7
I93
I28
I86
I-1643
I4
I22
tp1467
aa(lp1468
F1611228979.302563
aI-80
aI14
aI462
a(I-7
I0
I1
I-9
I0
I-1
I-4
I3
I0
I-1
I0
I0
I-1
I10
I4
I0
I6
I0
I-5
I0
I3
I0
tp1469
a(I116
I-33
I12
I95
I34
I96
I-225
I-295
I-275
I-740
I132
I-31
I7
I95
I28
I87
I-1644
I3
I21
tp1470
aa(lp1471
F1611228979.312585
aI-80
aI14
aI462
a(I-2
I2
I4
I-2
I2
I-3
I3
I0
I-5
I3
I0
I-2
I-2
I-2
I0
I-4
I3
I3
I1
I0
I5
I-4
tp1472
a(I115
I-33
I13
I95
I34
I96
I-225
I-295
I-276
I-739
I131
I-31
I8
I93
I28
I86
I-1643
I3
I21
tp1473
aa(lp1474
F1611228979.322556
aI-80
aI14
aI462
a(I-7
I-11
I-2
I-1
I-5
I-7
I-4
I8
I-2
I-8
I-7
I4
I-5
I-4
I-1
I0
I2
I-5
I-2
I2
I1
I-5
tp1475
a(I114
I-31
I14
I94
I34
I96
I-226
I-295
I-276
I-739
I133
I-30
I6
I93
I28
I87
I-1644
I4
I22
tp1476
aa(lp1477
F1611228979.332706
aI-79
aI12
aI462
a(I5
I1
I-1
I-3
I5
I-5
I-4
I4
I0
I3
I2
I5
I-1
I0
I0
I-5
I-5
I-4
I-2
I0
I-5
I-1
tp1478
a(I115
I-33
I14
I94
I33
I95
I-226
I-294
I-275
I-739
I132
I-30
I8
I94
I29
I85
I-1645
I4
I21
tp1479
aa(lp1480
F1611228979.342619
aI-80
aI14
aI462
a(I8
I1
I-8
I1
I4
I-5
I0
I4
I-5
I3
I3
I1
I5
I5
I8
I2
I1
I-3
I1
I6
I-2
I-1
tp1481
a(I114
I-31
I13
I95
I35
I96
I-225
I-295
I-276
I-738
I133
I-30
I8
I95
I29
I86
I-1642
I4
I23
tp1482
aa(lp1483
F1611228979.352774
aI-80
aI15
aI463
a(I6
I0
I0
I6
I8
I1
I0
I5
I-2
I5
I-4
I-2
I3
I4
I-6
I1
I-1
I-4
I-4
I6
I0
I0
tp1484
a(I115
I-32
I13
I95
I33
I95
I-225
I-295
I-276
I-739
I132
I-30
I7
I93
I29
I86
I-1644
I4
I22
tp1485
aa(lp1486
F1611228979.362665
aI-80
aI14
aI462
a(I0
I-2
I-3
I1
I-10
I-4
I1
I-7
I-8
I4
I-4
I-4
I-8
I4
I5
I-3
I3
I0
I3
I0
I-4
I-4
tp1487
a(I115
I-32
I14
I93
I33
I95
I-225
I-295
I-276
I-739
I134
I-32
I7
I94
I29
I86
I-1644
I3
I23
tp1488
aa(lp1489
F1611228979.372626
aI-80
aI14
aI462
a(I0
I3
I5
I-2
I-3
I5
I6
I-1
I-5
I5
I11
I1
I-2
I3
I4
I1
I-2
I2
I2
I0
I-2
I3
tp1490
a(I115
I-32
I14
I94
I35
I95
I-226
I-295
I-276
I-740
I133
I-30
I8
I95
I29
I86
I-1643
I3
I22
tp1491
aa(lp1492
F1611228979.382809
aI-80
aI15
aI462
a(I-1
I-1
I-1
I0
I-3
I6
I3
I-2
I-3
I6
I4
I3
I1
I5
I0
I-1
I0
I-6
I3
I0
I0
I-1
tp1493
a(I114
I-32
I14
I95
I35
I95
I-225
I-293
I-276
I-739
I132
I-30
I7
I95
I30
I86
I-1642
I3
I21
tp1494
aa(lp1495
F1611228979.392586
aI-80
aI16
aI461
a(I3
I3
I-2
I2
I-2
I0
I0
I-4
I-3
I8
I0
I-3
I1
I4
I-1
I-5
I-5
I3
I3
I1
I0
I-3
tp1496
a(I115
I-32
I13
I94
I35
I97
I-226
I-294
I-275
I-739
I133
I-30
I7
I94
I28
I86
I-1645
I3
I22
tp1497
aa(lp1498
F1611228979.402618
aI-80
aI16
aI462
a(I5
I-1
I0
I1
I-2
I0
I-2
I1
I-3
I-2
I3
I0
I-2
I-1
I-5
I4
I3
I-4
I3
I8
I4
I0
tp1499
a(I115
I-32
I12
I95
I34
I95
I-225
I-295
I-276
I-740
I133
I-30
I6
I93
I29
I85
I-1645
I3
I22
tp1500
aa(lp1501
F1611228979.412597
aI-80
aI17
aI462
a(I0
I0
I-3
I-1
I-2
I0
I4
I3
I6
I6
I-2
I2
I5
I2
I-1
I5
I-1
I2
I3
I-7
I-8
I3
tp1502
a(I114
I-31
I12
I94
I35
I96
I-225
I-294
I-277
I-739
I131
I-30
I6
I94
I29
I85
I-1644
I4
I21
tp1503
aa(lp1504
F1611228979.422489
aI-80
aI16
aI462
a(I5
I-5
I0
I5
I3
I5
I-1
I-2
I4
I1
I3
I3
I0
I-4
I6
I0
I-12
I4
I8
I6
I2
I-2
tp1505
a(I116
I-32
I12
I95
I35
I96
I-225
I-294
I-275
I-739
I133
I-30
I7
I94
I29
I87
I-1644
I3
I23
tp1506
aa(lp1507
F1611228979.432627
aI-80
aI15
aI462
a(I-2
I4
I-2
I-9
I2
I5
I-7
I-8
I0
I1
I-8
I-8
I5
I4
I-1
I-9
I4
I8
I-14
I-10
I6
I3
tp1508
a(I114
I-30
I13
I94
I33
I96
I-225
I-295
I-276
I-740
I133
I-30
I7
I94
I28
I87
I-1643
I5
I22
tp1509
aa(lp1510
F1611228979.442731
aI-80
aI15
aI462
a(I-12
I-6
I1
I0
I3
I-6
I-11
I0
I7
I1
I-6
I-6
I-1
I7
I1
I-8
I0
I2
I0
I-4
I-3
I-2
tp1511
a(I114
I-32
I13
I96
I33
I95
I-225
I-295
I-276
I-740
I133
I-31
I7
I93
I29
I86
I-1643
I4
I22
tp1512
aa(lp1513
F1611228979.452537
aI-80
aI16
aI462
a(I0
I-2
I-7
I-4
I3
I-8
I-1
I5
I2
I-2
I-3
I-1
I-7
I-2
I1
I0
I4
I0
I4
I11
I7
I3
tp1514
a(I115
I-32
I13
I95
I34
I95
I-225
I-295
I-276
I-739
I134
I-31
I8
I95
I30
I87
I-1642
I4
I21
tp1515
aa(lp1516
F1611228979.462725
aI-80
aI17
aI463
a(I9
I4
I6
I3
I-3
I0
I8
I2
I-7
I2
I4
I0
I4
I4
I0
I6
I-2
I-2
I-1
I-7
I-2
I2
tp1517
a(I116
I-32
I12
I95
I33
I95
I-225
I-295
I-276
I-739
I133
I-31
I8
I93
I30
I85
I-1642
I4
I20
tp1518
aa(lp1519
F1611228979.473014
aI-80
aI16
aI462
a(I1
I0
I6
I12
I-6
I0
I-2
I3
I4
I0
I-7
I4
I7
I-4
I-4
I4
I3
I-1
I-8
I4
I7
I-5
tp1520
a(I115
I-30
I14
I95
I34
I94
I-226
I-295
I-275
I-739
I132
I-29
I8
I94
I29
I87
I-1644
I4
I21
tp1521
aa(lp1522
F1611228979.482709
aI-79
aI15
aI462
a(I-8
I-2
I12
I-5
I-8
I1
I4
I-2
I-2
I-2
I4
I4
I-6
I-10
I5
I5
I-5
I-7
I1
I6
I4
I0
tp1523
a(I116
I-31
I12
I95
I34
I94
I-225
I-294
I-276
I-739
I133
I-31
I8
I94
I29
I85
I-1642
I4
I21
tp1524
aa(lp1525
F1611228979.492823
aI-80
aI15
aI462
a(I-5
I0
I8
I-2
I-2
I-4
I1
I0
I-5
I-14
I0
I2
I-5
I-4
I4
I6
I-7
I-5
I-1
I2
I1
I-1
tp1526
a(I115
I-32
I14
I93
I34
I96
I-225
I-295
I-275
I-739
I134
I-29
I8
I94
I28
I85
I-1644
I3
I22
tp1527
aa(lp1528
F1611228979.503131
aI-80
aI14
aI463
a(I-1
I3
I-3
I-10
I0
I-3
I-6
I-2
I-1
I1
I0
I-5
I-1
I-4
I-1
I1
I-4
I-5
I1
I3
I1
I0
tp1529
a(I115
I-32
I13
I95
I35
I95
I-225
I-294
I-276
I-739
I132
I-30
I6
I93
I29
I86
I-1642
I4
I21
tp1530
aa(lp1531
F1611228979.512711
aI-80
aI15
aI462
a(I3
I2
I2
I-5
I-1
I4
I7
I0
I1
I0
I-1
I4
I1
I1
I0
I-2
I-5
I0
I-1
I-3
I-8
I1
tp1532
a(I115
I-32
I13
I96
I34
I96
I-225
I-295
I-276
I-739
I133
I-32
I7
I95
I29
I86
I-1644
I4
I23
tp1533
aa(lp1534
F1611228979.522951
aI-80
aI15
aI462
a(I4
I-2
I0
I-6
I9
I1
I-2
I3
I6
I-9
I-2
I-1
I-2
I-3
I4
I-1
I-3
I1
I0
I0
I-1
I-3
tp1535
a(I116
I-32
I14
I94
I34
I95
I-225
I-295
I-276
I-740
I133
I-30
I7
I93
I28
I86
I-1644
I5
I21
tp1536
aa(lp1537
F1611228979.533056
aI-79
aI14
aI462
a(I-7
I0
I-2
I-4
I-5
I-1
I0
I-6
I-6
I0
I1
I-2
I-6
I5
I7
I-1
I-2
I0
I2
I4
I3
I-3
tp1538
a(I115
I-31
I12
I94
I33
I96
I-225
I-295
I-275
I-739
I133
I-30
I7
I95
I29
I87
I-1643
I4
I21
tp1539
aa(lp1540
F1611228979.542879
aI-79
aI15
aI462
a(I-3
I2
I1
I-5
I1
I-3
I-2
I-1
I-9
I-7
I-2
I-2
I-3
I6
I0
I-2
I-1
I3
I0
I0
I-1
I0
tp1541
a(I115
I-31
I13
I95
I33
I94
I-226
I-295
I-277
I-739
I133
I-29
I8
I94
I29
I86
I-1642
I3
I21
tp1542
aa(lp1543
F1611228979.55278
aI-80
aI14
aI462
a(I5
I-1
I-5
I-4
I6
I1
I2
I1
I5
I-5
I1
I0
I2
I0
I-1
I1
I0
I-3
I-5
I3
I0
I-8
tp1544
a(I115
I-32
I12
I94
I35
I96
I-226
I-294
I-275
I-739
I133
I-30
I8
I93
I28
I86
I-1643
I4
I21
tp1545
aa(lp1546
F1611228979.56322
aI-80
aI14
aI462
a(I5
I8
I3
I1
I2
I-5
I-3
I0
I0
I3
I6
I2
I-4
I1
I0
I4
I3
I4
I-2
I3
I0
I-3
tp1547
a(I114
I-32
I12
I95
I34
I95
I-225
I-295
I-275
I-740
I132
I-31
I8
I93
I28
I86
I-1644
I4
I22
tp1548
aa(lp1549
F1611228979.57291
aI-80
aI14
aI462
a(I4
I2
I0
I9
I2
I-10
I2
I5
I2
I0
I0
I4
I3
I3
I-1
I-3
I2
I-5
I-3
I4
I3
I-2
tp1550
a(I115
I-32
I13
I95
I34
I95
I-225
I-295
I-275
I-738
I133
I-31
I8
I93
I28
I87
I-1644
I2
I20
tp1551
aa(lp1552
F1611228979.582732
aI-80
aI13
aI462
a(I0
I1
I-1
I-2
I-1
I-1
I0
I0
I-5
I-3
I10
I0
I-7
I-2
I2
I4
I1
I0
I1
I7
I-1
I-6
tp1553
a(I115
I-31
I12
I95
I35
I95
I-225
I-296
I-275
I-739
I134
I-30
I8
I93
I29
I86
I-1644
I3
I22
tp1554
aa(lp1555
F1611228979.593079
aI-80
aI16
aI463
a(I4
I6
I0
I-5
I0
I3
I2
I-3
I0
I6
I3
I-1
I0
I6
I6
I-5
I-3
I-1
I0
I-1
I0
I-6
tp1556
a(I114
I-32
I14
I95
I34
I95
I-225
I-294
I-276
I-739
I132
I-30
I8
I94
I28
I86
I-1643
I3
I22
tp1557
aa(lp1558
F1611228979.602871
aI-80
aI14
aI463
a(I2
I4
I-9
I-10
I5
I-1
I0
I-2
I0
I-1
I4
I-5
I-5
I2
I0
I-2
I-5
I-2
I-9
I3
I0
I-5
tp1559
a(I115
I-32
I13
I94
I34
I95
I-225
I-295
I-276
I-739
I132
I-32
I7
I95
I29
I86
I-1644
I3
I21
tp1560
aa(lp1561
F1611228979.612725
aI-80
aI15
aI463
a(I8
I2
I-2
I-1
I2
I-5
I1
I-3
I1
I3
I5
I-3
I-10
I-1
I4
I-4
I0
I0
I0
I0
I-2
I-1
tp1562
a(I115
I-31
I12
I96
I35
I94
I-224
I-296
I-276
I-739
I133
I-31
I7
I94
I30
I87
I-1643
I3
I22
tp1563
aa(lp1564
F1611228979.623897
aI-80
aI13
aI462
a(I2
I-2
I-9
I-6
I3
I-6
I-4
I0
I-1
I-2
I1
I5
I1
I1
I-3
I-6
I5
I2
I1
I0
I5
I-1
tp1565
a(I115
I-32
I14
I94
I34
I96
I-225
I-295
I-275
I-739
I132
I-30
I8
I95
I29
I87
I-1643
I5
I21
tp1566
aa(lp1567
F1611228979.632884
aI-79
aI15
aI462
a(I-1
I-4
I0
I4
I0
I-7
I0
I11
I1
I-5
I1
I2
I0
I-3
I1
I-2
I5
I0
I2
I5
I5
I-1
tp1568
a(I116
I-33
I11
I94
I35
I96
I-225
I-294
I-276
I-739
I132
I-30
I8
I94
I29
I86
I-1644
I4
I22
tp1569
aa(lp1570
F1611228979.642763
aI-80
aI14
aI462
a(I-3
I-1
I5
I2
I-4
I2
I11
I-4
I-12
I-1
I5
I0
I-6
I0
I3
I6
I-2
I3
I0
I-2
I0
I-2
tp1571
a(I115
I-32
I13
I93
I34
I95
I-225
I-294
I-276
I-739
I132
I-30
I8
I95
I28
I86
I-1644
I3
I21
tp1572
aa(lp1573
F1611228979.653549
aI-80
aI15
aI461
a(I4
I-3
I-3
I-1
I6
I-5
I3
I4
I3
I0
I2
I-2
I4
I5
I0
I-1
I9
I2
I1
I10
I4
I-2
tp1574
a(I115
I-31
I14
I94
I34
I96
I-225
I-295
I-275
I-740
I133
I-31
I8
I93
I28
I86
I-1644
I4
I21
tp1575
aa(lp1576
F1611228979.662806
aI-79
aI14
aI462
a(I4
I7
I-5
I-1
I3
I0
I3
I-7
I-8
I10
I-5
I-6
I1
I0
I0
I5
I-1
I-5
I1
I-3
I-9
I-1
tp1577
a(I116
I-32
I14
I95
I34
I96
I-225
I-294
I-277
I-740
I132
I-31
I8
I94
I28
I86
I-1644
I3
I22
tp1578
aa(lp1579
F1611228979.672667
aI-79
aI14
aI463
a(I2
I-7
I-3
I12
I0
I-2
I-7
I0
I2
I-4
I-9
I3
I3
I1
I-2
I0
I5
I-2
I-4
I4
I8
I-2
tp1580
a(I115
I-32
I13
I94
I33
I96
I-225
I-295
I-276
I-740
I133
I-31
I8
I94
I28
I87
I-1644
I4
I20
tp1581
aa(lp1582
F1611228979.683614
aI-80
aI16
aI462
a(I-1
I2
I-1
I-3
I-6
I-1
I7
I-2
I-6
I-7
I7
I7
I-8
I2
I4
I4
I-3
I-8
I1
I5
I-8
I-5
tp1583
a(I115
I-31
I11
I95
I34
I95
I-225
I-295
I-277
I-740
I131
I-30
I7
I93
I30
I87
I-1643
I4
I22
tp1584
aa(lp1585
F1611228979.692959
aI-79
aI15
aI462
a(I0
I-1
I0
I-1
I-1
I-1
I0
I3
I5
I0
I-2
I-7
I0
I3
I-4
I0
I0
I0
I-6
I-2
I-11
I4
tp1586
a(I114
I-31
I12
I95
I34
I96
I-225
I-294
I-276
I-739
I132
I-31
I7
I93
I29
I86
I-1644
I3
I22
tp1587
aa(lp1588
F1611228979.702715
aI-80
aI15
aI462
a(I-1
I-12
I-3
I4
I-2
I0
I2
I-2
I-1
I2
I-2
I-2
I0
I5
I4
I-6
I0
I2
I-3
I-3
I0
I3
tp1589
a(I115
I-31
I13
I93
I35
I95
I-225
I-295
I-276
I-738
I133
I-31
I8
I94
I29
I85
I-1644
I3
I20
tp1590
aa(lp1591
F1611228979.712887
aI-79
aI14
aI461
a(I-1
I-9
I-5
I7
I-8
I-6
I-3
I0
I-4
I-2
I0
I2
I-1
I0
I-11
I2
I-2
I0
I-3
I-6
I-6
I-1
tp1592
a(I116
I-32
I14
I95
I35
I95
I-225
I-295
I-275
I-740
I133
I-29
I7
I95
I28
I86
I-1642
I3
I20
tp1593
aa(lp1594
F1611228979.723078
aI-80
aI14
aI462
a(I-4
I-3
I-2
I0
I3
I-5
I-3
I7
I-1
I-7
I1
I1
I0
I-6
I0
I0
I0
I-5
I-3
I13
I5
I-1
tp1595
a(I114
I-31
I13
I95
I34
I95
I-225
I-295
I-276
I-739
I133
I-30
I8
I95
I30
I87
I-1645
I4
I21
tp1596
aa(lp1597
F1611228979.732788
aI-80
aI13
aI463
a(I-1
I2
I-3
I-3
I0
I-3
I-2
I-1
I6
I5
I2
I0
I7
I-2
I0
I-2
I3
I7
I-6
I-3
I6
I7
tp1598
a(I114
I-31
I12
I95
I33
I96
I-226
I-294
I-277
I-739
I132
I-30
I7
I93
I30
I87
I-1642
I4
I23
tp1599
aa(lp1600
F1611228979.742857
aI-79
aI15
aI462
a(I-6
I1
I3
I1
I-1
I-4
I3
I6
I6
I-1
I0
I5
I4
I3
I4
I2
I0
I3
I3
I2
I6
I0
tp1601
a(I115
I-33
I13
I95
I35
I95
I-226
I-296
I-276
I-739
I132
I-30
I8
I93
I28
I87
I-1643
I5
I22
tp1602
aa(lp1603
F1611228979.753052
aI-79
aI15
aI462
a(I2
I7
I3
I-4
I-5
I3
I2
I4
I-1
I0
I-1
I4
I2
I-10
I0
I10
I2
I0
I1
I8
I9
I-4
tp1604
a(I115
I-32
I13
I95
I35
I96
I-225
I-295
I-276
I-739
I132
I-32
I6
I94
I28
I87
I-1644
I4
I21
tp1605
aa(lp1606
F1611228979.762914
aI-80
aI16
aI462
a(I-7
I0
I4
I-7
I-3
I2
I0
I-1
I5
I-2
I-3
I0
I6
I0
I0
I0
I3
I10
I0
I-4
I5
I3
tp1607
a(I116
I-31
I13
I95
I35
I95
I-224
I-294
I-276
I-740
I132
I-30
I8
I93
I29
I85
I-1644
I4
I20
tp1608
aa(lp1609
F1611228979.772906
aI-80
aI15
aI462
a(I5
I2
I2
I1
I8
I-1
I-1
I3
I7
I0
I-1
I8
I-1
I6
I7
I2
I0
I4
I0
I1
I-1
I-2
tp1610
a(I115
I-32
I14
I95
I34
I95
I-226
I-295
I-276
I-739
I132
I-31
I7
I93
I29
I86
I-1643
I4
I23
tp1611
aa(lp1612
F1611228979.783131
aI-80
aI13
aI462
a(I0
I-5
I-5
I-2
I14
I-2
I-8
I5
I10
I0
I1
I-6
I-3
I0
I-4
I-7
I4
I8
I0
I-8
I2
I3
tp1613
a(I115
I-32
I14
I95
I34
I96
I-225
I-295
I-275
I-740
I133
I-30
I8
I94
I28
I85
I-1643
I3
I22
tp1614
aa(lp1615
F1611228979.79292
aI-80
aI15
aI462
a(I1
I-3
I-2
I1
I3
I-7
I-2
I5
I-1
I-5
I3
I-5
I-2
I0
I-1
I-4
I-1
I2
I-3
I-1
I-1
I-7
tp1616
a(I115
I-31
I12
I95
I35
I96
I-226
I-294
I-275
I-740
I134
I-31
I7
I94
I28
I87
I-1643
I4
I22
tp1617
aa(lp1618
F1611228979.802856
aI-80
aI16
aI462
a(I0
I-5
I-9
I-2
I-1
I-9
I0
I3
I-4
I0
I0
I-3
I3
I5
I4
I-2
I7
I2
I0
I2
I-3
I0
tp1619
a(I115
I-31
I13
I93
I35
I96
I-225
I-294
I-276
I-740
I133
I-31
I6
I94
I29
I85
I-1644
I4
I21
tp1620
aa(lp1621
F1611228979.813004
aI-80
aI15
aI463
a(I2
I2
I0
I-1
I2
I-6
I-1
I0
I0
I3
I-8
I1
I1
I6
I-5
I-4
I10
I2
I-6
I-2
I4
I-4
tp1622
a(I116
I-32
I13
I96
I33
I96
I-226
I-294
I-277
I-739
I132
I-30
I7
I93
I28
I87
I-1644
I3
I22
tp1623
aa(lp1624
F1611228979.822704
aI-80
aI14
aI462
a(I-4
I-5
I-1
I-3
I-9
I-6
I-1
I-2
I-2
I0
I-5
I-3
I-3
I4
I-6
I-6
I-1
I-2
I-6
I-3
I1
I2
tp1625
a(I115
I-31
I14
I94
I33
I97
I-226
I-295
I-276
I-739
I133
I-29
I6
I94
I29
I87
I-1644
I4
I20
tp1626
aa(lp1627
F1611228979.832801
aI-80
aI13
aI462
a(I0
I-5
I1
I2
I4
I-7
I-2
I7
I3
I4
I0
I-3
I1
I1
I3
I0
I-3
I-1
I5
I-2
I-3
I-5
tp1628
a(I114
I-32
I14
I96
I33
I96
I-225
I-295
I-276
I-739
I132
I-30
I6
I95
I28
I87
I-1643
I5
I22
tp1629
aa(lp1630
F1611228979.842931
aI-80
aI12
aI462
a(I3
I4
I6
I-6
I0
I0
I0
I0
I-2
I-1
I5
I3
I-7
I0
I4
I1
I0
I-3
I-3
I8
I2
I-2
tp1631
a(I115
I-31
I14
I95
I33
I96
I-226
I-295
I-276
I-739
I132
I-30
I7
I93
I30
I86
I-1643
I2
I21
tp1632
aa(lp1633
F1611228979.852731
aI-80
aI12
aI462
a(I-2
I0
I2
I4
I0
I-6
I3
I2
I-6
I0
I-2
I4
I-9
I-4
I0
I3
I0
I0
I-4
I-6
I-6
I-2
tp1634
a(I116
I-32
I14
I94
I33
I97
I-225
I-295
I-276
I-739
I132
I-31
I7
I94
I29
I87
I-1643
I4
I22
tp1635
aa(lp1636
F1611228979.86276
aI-80
aI10
aI463
a(I-4
I-8
I-5
I7
I4
I-9
I0
I11
I-1
I-4
I-1
I7
I3
I-6
I-8
I0
I10
I-2
I-8
I0
I3
I0
tp1637
a(I115
I-32
I14
I95
I35
I96
I-226
I-294
I-276
I-739
I133
I-29
I7
I94
I29
I86
I-1644
I4
I20
tp1638
aa(lp1639
F1611228979.872863
aI-80
aI12
aI462
a(I-6
I-1
I8
I4
I0
I0
I6
I7
I-2
I-1
I3
I5
I4
I4
I8
I6
I4
I2
I2
I4
I3
I-1
tp1640
a(I115
I-32
I14
I94
I35
I96
I-225
I-295
I-276
I-739
I133
I-31
I6
I94
I28
I86
I-1643
I3
I22
tp1641
aa(lp1642
F1611228979.882674
aI-80
aI12
aI462
a(I0
I5
I3
I3
I0
I4
I9
I1
I0
I3
I14
I3
I-2
I0
I0
I0
I2
I-1
I0
I5
I4
I0
tp1643
a(I116
I-31
I15
I96
I35
I94
I-225
I-294
I-277
I-739
I132
I-30
I7
I94
I29
I86
I-1643
I3
I22
tp1644
aa(lp1645
F1611228979.892789
aI-79
aI14
aI461
a(I-3
I3
I3
I-4
I-14
I-1
I0
I-4
I-7
I1
I-1
I0
I-1
I-4
I-7
I0
I0
I-4
I-7
I-1
I-2
I-4
tp1646
a(I115
I-32
I14
I94
I35
I94
I-225
I-294
I-275
I-739
I132
I-29
I8
I93
I29
I87
I-1642
I2
I21
tp1647
aa(lp1648
F1611228979.902737
aI-80
aI14
aI462
a(I-11
I1
I8
I-1
I-6
I2
I-2
I-3
I-4
I1
I-2
I4
I0
I-2
I3
I5
I-6
I-2
I2
I-2
I-5
I3
tp1649
a(I115
I-32
I15
I95
I34
I96
I-225
I-294
I-277
I-739
I133
I-31
I6
I94
I28
I86
I-1642
I5
I22
tp1650
aa(lp1651
F1611228979.912892
aI-80
aI13
aI462
a(I0
I0
I-2
I1
I-1
I5
I-7
I0
I7
I0
I1
I4
I2
I-4
I3
I-5
I-7
I2
I-3
I-4
I-2
I-2
tp1652
a(I116
I-32
I14
I94
I34
I96
I-226
I-295
I-276
I-739
I132
I-30
I8
I94
I29
I87
I-1643
I5
I22
tp1653
aa(lp1654
F1611228979.922866
aI-79
aI14
aI463
a(I-10
I-5
I5
I-2
I6
I-2
I3
I6
I0
I-4
I5
I6
I9
I7
I0
I-6
I7
I6
I-8
I-4
I8
I11
tp1655
a(I115
I-31
I13
I95
I34
I96
I-226
I-295
I-277
I-738
I132
I-30
I9
I93
I29
I87
I-1644
I4
I23
tp1656
aa(lp1657
F1611228979.932975
aI-80
aI12
aI462
a(I-5
I-1
I4
I3
I0
I-6
I-4
I9
I-3
I-9
I-1
I3
I5
I4
I0
I-1
I6
I1
I-12
I-4
I-2
I-2
tp1658
a(I115
I-31
I14
I95
I34
I96
I-225
I-295
I-276
I-739
I132
I-30
I7
I93
I29
I87
I-1643
I4
I21
tp1659
aa(lp1660
F1611228979.942797
aI-80
aI14
aI462
a(I-4
I-1
I-3
I5
I6
I-6
I-9
I8
I-6
I-6
I-6
I0
I7
I2
I-4
I2
I4
I-7
I-11
I1
I4
I-9
tp1661
a(I116
I-31
I14
I95
I35
I96
I-225
I-294
I-277
I-740
I133
I-30
I7
I94
I29
I87
I-1644
I3
I21
tp1662
aa(lp1663
F1611228979.952838
aI-80
aI14
aI462
a(I-4
I1
I-1
I0
I-4
I-2
I5
I0
I-5
I-2
I0
I2
I-3
I-6
I0
I-6
I0
I-4
I0
I1
I-4
I-1
tp1664
a(I116
I-32
I15
I95
I34
I96
I-226
I-295
I-277
I-740
I133
I-31
I7
I95
I28
I85
I-1642
I4
I22
tp1665
aa(lp1666
F1611228979.962861
aI-80
aI13
aI462
a(I4
I-1
I-2
I-2
I4
I1
I-2
I0
I-2
I-5
I-2
I0
I-4
I-4
I-5
I4
I2
I-6
I0
I6
I5
I-4
tp1667
a(I115
I-32
I14
I96
I35
I97
I-225
I-295
I-275
I-739
I132
I-30
I7
I93
I28
I86
I-1642
I3
I23
tp1668
aa(lp1669
F1611228979.972804
aI-80
aI14
aI462
a(I0
I-3
I2
I0
I-1
I-2
I1
I-1
I0
I-7
I4
I0
I-6
I2
I-7
I-5
I3
I-2
I-3
I0
I-1
I0
tp1670
a(I115
I-32
I12
I95
I32
I96
I-225
I-295
I-276
I-739
I134
I-30
I7
I95
I29
I87
I-1643
I4
I20
tp1671
aa(lp1672
F1611228979.982678
aI-80
aI15
aI462
a(I0
I-3
I-4
I3
I-4
I-9
I4
I-1
I0
I-2
I6
I7
I3
I-6
I6
I4
I0
I-8
I0
I6
I-1
I-6
tp1673
a(I114
I-30
I14
I94
I33
I96
I-226
I-295
I-276
I-739
I132
I-30
I8
I94
I29
I87
I-1642
I4
I22
tp1674
aa(lp1675
F1611228979.994438
aI-80
aI13
aI462
a(I1
I-1
I2
I-3
I-3
I-3
I3
I3
I0
I-6
I3
I-2
I-1
I2
I-5
I-5
I-3
I2
I-6
I-4
I-2
I-1
tp1676
a(I116
I-32
I12
I94
I34
I95
I-226
I-294
I-276
I-739
I133
I-30
I8
I94
I29
I87
I-1645
I3
I22
tp1677
aa(lp1678
F1611228980.002864
aI-80
aI13
aI463
a(I0
I-2
I-2
I1
I-2
I-2
I1
I-2
I-4
I0
I4
I-3
I-5
I4
I4
I-1
I2
I4
I4
I3
I0
I1
tp1679
a(I115
I-33
I12
I95
I35
I96
I-226
I-294
I-276
I-740
I132
I-30
I6
I94
I28
I87
I-1643
I3
I21
tp1680
aa(lp1681
F1611228980.012929
aI-80
aI13
aI462
a(I-1
I-9
I-1
I7
I-9
I-9
I8
I8
I-2
I0
I3
I9
I7
I-11
I-5
I6
I7
I-6
I-5
I3
I5
I4
tp1682
a(I114
I-31
I13
I94
I32
I95
I-226
I-293
I-278
I-739
I132
I-30
I8
I93
I28
I85
I-1642
I3
I22
tp1683
aa(lp1684
F1611228980.024412
aI-80
aI13
aI462
a(I-1
I-1
I-2
I3
I-8
I1
I0
I7
I2
I10
I0
I-1
I3
I-2
I-4
I5
I-2
I-7
I4
I9
I-3
I-8
tp1685
a(I115
I-31
I13
I96
I35
I96
I-225
I-294
I-276
I-739
I132
I-32
I8
I94
I28
I86
I-1643
I4
I21
tp1686
aa(lp1687
F1611228980.03298
aI-80
aI15
aI462
a(I0
I0
I1
I0
I0
I9
I7
I-2
I-2
I1
I-3
I-7
I0
I4
I0
I3
I-4
I5
I8
I0
I-1
I0
tp1688
a(I115
I-33
I14
I95
I34
I95
I-226
I-295
I-276
I-739
I133
I-30
I8
I93
I29
I87
I-1644
I4
I22
tp1689
aa(lp1690
F1611228980.042848
aI-80
aI14
aI462
a(I-4
I-3
I0
I0
I-5
I9
I5
I1
I1
I-3
I0
I1
I-3
I3
I5
I4
I0
I4
I1
I0
I2
I4
tp1691
a(I116
I-32
I13
I94
I33
I95
I-225
I-294
I-276
I-738
I132
I-30
I7
I93
I28
I85
I-1644
I3
I22
tp1692
aa(lp1693
F1611228980.053168
aI-80
aI16
aI462
a(I-4
I0
I6
I1
I-11
I-1
I3
I4
I-8
I-8
I4
I8
I-1
I-6
I0
I4
I-2
I1
I-3
I1
I1
I-11
tp1694
a(I116
I-32
I12
I95
I34
I94
I-225
I-295
I-276
I-739
I132
I-31
I9
I94
I29
I86
I-1643
I4
I21
tp1695
aa(lp1696
F1611228980.063209
aI-79
aI15
aI462
a(I-4
I4
I4
I-9
I-2
I10
I-5
I-1
I7
I5
I0
I-1
I0
I3
I-1
I-3
I4
I8
I-7
I1
I3
I-1
tp1697
a(I115
I-32
I14
I95
I35
I96
I-225
I-296
I-277
I-739
I133
I-31
I9
I95
I28
I86
I-1642
I4
I21
tp1698
aa(lp1699
F1611228980.072883
aI-80
aI13
aI462
a(I-2
I-1
I0
I-3
I5
I-2
I-1
I2
I2
I-5
I-1
I-3
I-1
I5
I3
I-7
I-1
I-1
I-1
I-3
I0
I-1
tp1700
a(I114
I-31
I14
I95
I34
I96
I-225
I-294
I-277
I-739
I133
I-30
I8
I93
I30
I87
I-1644
I3
I21
tp1701
aa(lp1702
F1611228980.082989
aI-80
aI15
aI463
a(I6
I-1
I0
I8
I10
I0
I6
I10
I4
I0
I7
I3
I4
I4
I-2
I0
I5
I0
I-1
I7
I5
I9
tp1703
a(I116
I-33
I12
I95
I33
I96
I-226
I-295
I-276
I-739
I132
I-31
I7
I94
I28
I87
I-1643
I3
I20
tp1704
aa(lp1705
F1611228980.093113
aI-80
aI17
aI462
a(I0
I-4
I0
I7
I-6
I-4
I-1
I8
I6
I8
I-4
I-1
I6
I2
I-6
I3
I6
I3
I4
I-3
I-2
I4
tp1706
a(I115
I-32
I13
I95
I35
I96
I-225
I-294
I-276
I-739
I133
I-30
I7
I94
I31
I86
I-1643
I5
I21
tp1707
aa(lp1708
F1611228980.10289
aI-80
aI14
aI462
a(I0
I-3
I-4
I0
I0
I2
I-6
I-5
I0
I4
I-7
I3
I1
I2
I-7
I5
I5
I9
I3
I1
I4
I3
tp1709
a(I115
I-32
I12
I95
I34
I96
I-225
I-296
I-277
I-739
I132
I-29
I6
I95
I30
I86
I-1643
I3
I23
tp1710
aa(lp1711
F1611228980.113032
aI-79
aI14
aI462
a(I-2
I-1
I8
I7
I-3
I2
I2
I2
I6
I2
I3
I6
I-1
I-3
I0
I-1
I-7
I4
I4
I-1
I0
I0
tp1712
a(I115
I-32
I14
I95
I35
I95
I-225
I-296
I-276
I-739
I133
I-32
I7
I95
I29
I87
I-1643
I3
I22
tp1713
aa(lp1714
F1611228980.123189
aI-79
aI14
aI463
a(I-2
I-5
I-4
I2
I-1
I0
I0
I4
I1
I-11
I-3
I5
I-1
I-7
I-4
I-1
I0
I1
I-10
I-4
I-1
I-1
tp1715
a(I115
I-32
I13
I94
I34
I96
I-226
I-294
I-276
I-739
I131
I-31
I8
I94
I29
I85
I-1644
I2
I22
tp1716
aa(lp1717
F1611228980.132935
aI-80
aI15
aI462
a(I-8
I-1
I2
I0
I-4
I-1
I-4
I4
I-4
I-8
I0
I3
I0
I2
I0
I-3
I0
I-1
I-6
I-5
I1
I-5
tp1718
a(I114
I-32
I12
I95
I34
I96
I-226
I-295
I-276
I-738
I133
I-30
I8
I93
I28
I85
I-1642
I4
I21
tp1719
aa(lp1720
F1611228980.143174
aI-80
aI14
aI461
a(I3
I2
I-6
I-4
I2
I-8
I0
I5
I5
I-6
I1
I4
I-2
I-1
I-2
I0
I6
I-2
I-9
I11
I9
I-3
tp1721
a(I114
I-33
I12
I96
I33
I95
I-225
I-294
I-276
I-739
I132
I-30
I7
I93
I28
I86
I-1643
I4
I21
tp1722
aa(lp1723
F1611228980.153231
aI-80
aI14
aI462
a(I1
I1
I-3
I-5
I-7
I-5
I5
I0
I-1
I4
I9
I-5
I-2
I7
I8
I-3
I0
I0
I-1
I0
I-6
I0
tp1724
a(I115
I-33
I13
I94
I35
I95
I-225
I-295
I-275
I-739
I131
I-31
I6
I93
I28
I86
I-1642
I5
I21
tp1725
aa(lp1726
F1611228980.162936
aI-80
aI14
aI462
a(I10
I-2
I-9
I7
I4
I-7
I0
I3
I9
I6
I11
I6
I7
I11
I-3
I0
I1
I5
I10
I4
I-2
I9
tp1727
a(I115
I-32
I13
I95
I35
I96
I-225
I-295
I-277
I-740
I132
I-30
I8
I93
I28
I87
I-1644
I4
I21
tp1728
aa(lp1729
F1611228980.173134
aI-80
aI16
aI462
a(I5
I0
I9
I9
I0
I6
I0
I-1
I2
I6
I-5
I2
I3
I1
I0
I-6
I-6
I-2
I0
I-2
I-7
I-2
tp1730
a(I115
I-32
I13
I95
I34
I95
I-225
I-294
I-277
I-739
I133
I-30
I8
I95
I28
I86
I-1642
I3
I22
tp1731
aa(lp1732
F1611228980.183221
aI-80
aI16
aI462
a(I-2
I-2
I0
I-6
I-2
I7
I0
I-3
I3
I0
I-2
I7
I0
I-2
I2
I7
I-8
I1
I8
I4
I5
I3
tp1733
a(I115
I-32
I14
I93
I35
I96
I-226
I-295
I-276
I-740
I132
I-31
I7
I94
I28
I85
I-1644
I4
I20
tp1734
aa(lp1735
F1611228980.192799
aI-80
aI18
aI462
a(I5
I3
I0
I0
I8
I7
I0
I7
I10
I-2
I1
I6
I4
I7
I4
I-2
I3
I3
I0
I-5
I6
I0
tp1736
a(I114
I-31
I13
I94
I34
I96
I-226
I-295
I-276
I-740
I132
I-30
I7
I94
I28
I86
I-1642
I4
I21
tp1737
aa(lp1738
F1611228980.202883
aI-80
aI16
aI462
a(I-7
I0
I0
I-4
I3
I-1
I3
I3
I-8
I-2
I3
I-5
I0
I1
I6
I0
I1
I8
I-7
I1
I8
I0
tp1739
a(I115
I-31
I15
I95
I35
I95
I-225
I-294
I-276
I-740
I132
I-31
I8
I94
I28
I86
I-1644
I3
I21
tp1740
aa(lp1741
F1611228980.213247
aI-80
aI16
aI462
a(I-4
I-2
I1
I-5
I-9
I-4
I11
I2
I-4
I-5
I5
I0
I-2
I1
I1
I0
I-1
I-3
I-2
I1
I-3
I-13
tp1742
a(I115
I-32
I13
I94
I35
I95
I-225
I-294
I-276
I-739
I132
I-30
I7
I93
I28
I86
I-1642
I2
I23
tp1743
aa(lp1744
F1611228980.222828
aI-79
aI14
aI463
a(I0
I0
I-7
I-9
I-1
I-1
I-6
I-3
I-7
I4
I-3
I-8
I6
I9
I-7
I-2
I-1
I1
I-3
I-5
I-5
I-1
tp1745
a(I114
I-31
I14
I95
I34
I95
I-225
I-295
I-276
I-740
I133
I-30
I8
I95
I29
I87
I-1643
I3
I21
tp1746
aa(lp1747
F1611228980.232956
aI-80
aI15
aI463
a(I1
I-8
I-3
I0
I0
I-5
I-6
I-3
I0
I-5
I-10
I1
I0
I3
I0
I1
I4
I1
I3
I-2
I-4
I-2
tp1748
a(I114
I-32
I13
I95
I35
I95
I-225
I-296
I-276
I-739
I133
I-30
I8
I95
I29
I85
I-1644
I4
I20
tp1749
aa(lp1750
F1611228980.243191
aI-80
aI14
aI462
a(I8
I-5
I0
I5
I0
I-2
I7
I-2
I-5
I-2
I-2
I1
I-5
I-6
I4
I4
I-6
I0
I2
I2
I-4
I-4
tp1751
a(I114
I-32
I13
I96
I34
I95
I-225
I-295
I-276
I-740
I133
I-31
I8
I93
I29
I86
I-1644
I4
I21
tp1752
aa(lp1753
F1611228980.253136
aI-80
aI13
aI462
a(I-4
I-7
I5
I2
I0
I-3
I7
I4
I3
I-10
I-6
I0
I2
I-4
I-6
I0
I0
I6
I1
I-3
I4
I10
tp1754
a(I115
I-32
I13
I95
I34
I96
I-226
I-295
I-277
I-738
I132
I-30
I7
I95
I28
I87
I-1642
I4
I22
tp1755
aa(lp1756
F1611228980.263191
aI-80
aI14
aI462
a(I0
I2
I3
I5
I3
I5
I0
I2
I7
I5
I-10
I0
I8
I-1
I-4
I3
I5
I4
I-2
I-2
I7
I1
tp1757
a(I115
I-31
I12
I95
I34
I95
I-225
I-295
I-277
I-739
I132
I-29
I7
I94
I29
I86
I-1643
I5
I21
tp1758
aa(lp1759
F1611228980.273112
aI-79
aI14
aI462
a(I-9
I-1
I5
I-2
I-8
I4
I0
I-4
I-4
I0
I-3
I2
I-1
I-1
I5
I4
I-4
I3
I4
I-3
I2
I-3
tp1760
a(I116
I-33
I14
I95
I35
I96
I-224
I-295
I-277
I-740
I132
I-29
I8
I94
I30
I87
I-1642
I6
I21
tp1761
aa(lp1762
F1611228980.282886
aI-80
aI15
aI461
a(I-5
I-3
I0
I2
I8
I-3
I-2
I7
I7
I-9
I-5
I9
I6
I-7
I-6
I6
I2
I-3
I-12
I1
I8
I1
tp1763
a(I115
I-32
I14
I95
I33
I96
I-225
I-295
I-275
I-739
I131
I-30
I8
I93
I30
I86
I-1644
I3
I21
tp1764
aa(lp1765
F1611228980.293112
aI-80
aI15
aI462
a(I0
I8
I4
I3
I4
I6
I-1
I1
I6
I0
I0
I0
I4
I8
I6
I1
I1
I5
I-2
I-12
I-3
I-4
tp1766
a(I116
I-32
I14
I95
I34
I96
I-226
I-295
I-276
I-739
I132
I-31
I8
I94
I29
I86
I-1644
I2
I21
tp1767
aa(lp1768
F1611228980.30329
aI-79
aI15
aI462
a(I-6
I-10
I1
I-1
I3
I-7
I0
I6
I0
I-12
I-2
I1
I-8
I-4
I4
I0
I-10
I-7
I-1
I0
I-4
I2
tp1769
a(I115
I-31
I13
I94
I34
I97
I-225
I-295
I-276
I-739
I132
I-29
I7
I94
I30
I86
I-1643
I4
I20
tp1770
aa(lp1771
F1611228980.312957
aI-80
aI14
aI462
a(I0
I2
I2
I-3
I-2
I-3
I-7
I-1
I1
I-5
I7
I0
I-4
I-1
I2
I-3
I-4
I-1
I-10
I-2
I3
I-2
tp1772
a(I115
I-32
I11
I94
I34
I96
I-225
I-295
I-276
I-739
I133
I-29
I8
I94
I28
I86
I-1642
I3
I22
tp1773
aa(lp1774
F1611228980.323137
aI-80
aI13
aI463
a(I-2
I-4
I4
I-4
I-1
I-9
I-1
I-5
I-9
I-2
I7
I1
I-4
I1
I5
I-1
I-5
I-2
I0
I4
I-5
I-11
tp1775
a(I116
I-32
I13
I95
I34
I96
I-226
I-295
I-276
I-739
I133
I-30
I8
I94
I29
I86
I-1643
I3
I22
tp1776
aa(lp1777
F1611228980.333091
aI-79
aI13
aI462
a(I3
I9
I-7
I-8
I2
I9
I-1
I-1
I1
I9
I4
I-6
I-1
I11
I5
I0
I-1
I2
I-7
I1
I0
I0
tp1778
a(I116
I-33
I13
I95
I34
I94
I-226
I-294
I-277
I-739
I132
I-31
I8
I93
I28
I85
I-1644
I3
I21
tp1779
aa(lp1780
F1611228980.342938
aI-79
aI13
aI461
a(I-1
I1
I0
I-5
I-6
I0
I6
I0
I3
I-1
I7
I3
I-6
I1
I2
I1
I9
I3
I3
I2
I6
I0
tp1781
a(I115
I-32
I13
I93
I34
I94
I-225
I-295
I-277
I-739
I133
I-30
I7
I94
I30
I87
I-1643
I4
I21
tp1782
aa(lp1783
F1611228980.352974
aI-79
aI13
aI463
a(I7
I8
I3
I-3
I-1
I1
I-4
I-1
I0
I3
I1
I-3
I0
I-1
I0
I-6
I0
I5
I-2
I0
I1
I3
tp1784
a(I114
I-31
I12
I96
I33
I95
I-225
I-295
I-276
I-739
I132
I-30
I8
I95
I28
I86
I-1642
I4
I21
tp1785
aa(lp1786
F1611228980.363327
aI-80
aI14
aI462
a(I-2
I-5
I0
I2
I0
I-1
I0
I0
I3
I-2
I0
I1
I-1
I0
I4
I2
I-4
I2
I5
I2
I-4
I4
tp1787
a(I115
I-32
I14
I93
I35
I96
I-226
I-294
I-276
I-740
I132
I-30
I7
I95
I28
I85
I-1644
I2
I20
tp1788
aa(lp1789
F1611228980.373026
aI-79
aI14
aI462
a(I-3
I2
I-3
I-10
I-3
I6
I0
I-5
I-5
I5
I6
I-2
I2
I4
I6
I-6
I-9
I2
I8
I-2
I-4
I4
tp1790
a(I115
I-33
I13
I95
I34
I95
I-225
I-296
I-276
I-739
I133
I-30
I8
I93
I30
I85
I-1644
I4
I21
tp1791
aa(lp1792
F1611228980.383172
aI-80
aI13
aI462
a(I0
I-5
I2
I0
I-2
I2
I0
I-4
I-5
I-4
I-4
I7
I-5
I-4
I-1
I6
I-1
I-4
I2
I3
I1
I-2
tp1793
a(I115
I-32
I14
I96
I34
I95
I-225
I-295
I-276
I-739
I132
I-30
I8
I93
I28
I85
I-1642
I2
I21
tp1794
aa(lp1795
F1611228980.393214
aI-80
aI13
aI462
a(I-1
I3
I0
I0
I0
I0
I5
I1
I1
I4
I-1
I-1
I4
I0
I1
I4
I7
I-3
I-3
I2
I1
I-1
tp1796
a(I114
I-32
I12
I94
I34
I95
I-225
I-294
I-276
I-739
I134
I-32
I8
I93
I28
I86
I-1643
I4
I22
tp1797
aa(lp1798
F1611228980.403153
aI-79
aI13
aI462
a(I0
I4
I2
I2
I-6
I-6
I5
I-7
I-10
I-7
I6
I3
I-5
I-7
I10
I2
I-7
I-9
I8
I4
I-4
I-6
tp1799
a(I115
I-33
I14
I94
I33
I95
I-225
I-295
I-276
I-739
I132
I-29
I8
I93
I28
I87
I-1641
I5
I22
tp1800
aa(lp1801
F1611228980.413026
aI-79
aI13
aI462
a(I-3
I0
I0
I1
I0
I2
I7
I4
I0
I0
I7
I2
I0
I2
I0
I-3
I1
I0
I3
I4
I-2
I0
tp1802
a(I115
I-32
I12
I94
I34
I95
I-225
I-294
I-276
I-739
I132
I-31
I6
I94
I29
I87
I-1644
I3
I21
tp1803
aa(lp1804
F1611228980.422964
aI-80
aI13
aI462
a(I2
I-6
I0
I-7
I-5
I-5
I-4
I-3
I0
I3
I1
I-7
I-4
I5
I-2
I-5
I3
I6
I2
I1
I-4
I-1
tp1805
a(I115
I-31
I13
I94
I35
I96
I-226
I-294
I-276
I-739
I132
I-29
I6
I94
I29
I86
I-1643
I4
I20
tp1806
aa(lp1807
F1611228980.432823
aI-80
aI13
aI463
a(I-7
I-7
I-4
I1
I-5
I-8
I2
I3
I-3
I-2
I4
I-1
I-3
I0
I-1
I4
I-9
I-3
I6
I1
I-9
I-1
tp1808
a(I116
I-30
I12
I94
I34
I96
I-226
I-294
I-276
I-739
I133
I-31
I7
I95
I31
I86
I-1643
I5
I22
tp1809
aa(lp1810
F1611228980.442901
aI-79
aI12
aI462
a(I5
I0
I-7
I-3
I2
I6
I-7
I-7
I-1
I3
I1
I-9
I1
I9
I4
I-5
I3
I-2
I0
I-6
I-8
I0
tp1811
a(I116
I-32
I13
I95
I35
I95
I-225
I-294
I-276
I-739
I132
I-31
I8
I94
I29
I86
I-1643
I3
I21
tp1812
aa(lp1813
F1611228980.453212
aI-80
aI14
aI462
a(I0
I-9
I-5
I-5
I-3
I0
I2
I-4
I-7
I9
I0
I-1
I-7
I2
I0
I-1
I-2
I0
I9
I2
I-3
I1
tp1814
a(I115
I-31
I12
I95
I34
I96
I-226
I-295
I-276
I-739
I132
I-29
I8
I94
I29
I86
I-1643
I2
I22
tp1815
aa(lp1816
F1611228980.462942
aI-80
aI14
aI462
a(I7
I-1
I1
I-2
I-3
I-5
I2
I-2
I0
I0
I5
I4
I9
I3
I-1
I5
I4
I-5
I-2
I2
I2
I1
tp1817
a(I115
I-32
I14
I95
I34
I95
I-225
I-295
I-276
I-738
I132
I-31
I8
I93
I28
I86
I-1644
I3
I21
tp1818
aa(lp1819
F1611228980.472913
aI-80
aI15
aI462
a(I-4
I2
I10
I4
I-8
I1
I6
I0
I-2
I3
I-2
I6
I4
I0
I0
I0
I4
I0
I1
I10
I0
I-7
tp1820
a(I115
I-32
I12
I95
I34
I95
I-226
I-295
I-276
I-739
I132
I-30
I7
I94
I28
I87
I-1642
I4
I21
tp1821
aa(lp1822
F1611228980.483156
aI-80
aI15
aI462
a(I1
I0
I4
I0
I-5
I0
I1
I2
I-2
I0
I-10
I0
I-5
I-5
I-10
I4
I1
I0
I1
I3
I3
I0
tp1823
a(I116
I-33
I14
I94
I35
I95
I-225
I-295
I-275
I-740
I131
I-31
I7
I95
I29
I87
I-1643
I3
I21
tp1824
aa(lp1825
F1611228980.492912
aI-80
aI14
aI462
a(I-6
I-3
I-3
I-3
I-8
I3
I-2
I0
I0
I5
I0
I-2
I-10
I0
I7
I-2
I-6
I0
I10
I-2
I-10
I3
tp1826
a(I116
I-32
I12
I95
I34
I96
I-225
I-294
I-276
I-740
I132
I-30
I7
I93
I30
I85
I-1643
I4
I21
tp1827
aa(lp1828
F1611228980.503083
aI-79
aI13
aI462
a(I9
I-6
I1
I0
I5
I3
I-6
I2
I6
I3
I-4
I6
I4
I-1
I6
I5
I-3
I0
I1
I4
I6
I1
tp1829
a(I115
I-31
I12
I95
I34
I96
I-226
I-295
I-276
I-739
I132
I-30
I7
I94
I28
I85
I-1642
I3
I21
tp1830
aa(lp1831
F1611228980.513154
aI-80
aI13
aI462
a(I-12
I-2
I7
I-1
I0
I4
I9
I-1
I4
I0
I9
I4
I0
I0
I1
I0
I-3
I0
I2
I0
I2
I2
tp1832
a(I115
I-32
I13
I93
I35
I95
I-225
I-295
I-276
I-739
I131
I-30
I8
I93
I30
I87
I-1643
I3
I23
tp1833
aa(lp1834
F1611228980.523997
aI-80
aI13
aI462
a(I-7
I-2
I0
I5
I-5
I1
I1
I7
I3
I-2
I0
I3
I4
I-1
I-4
I-1
I1
I3
I-5
I-2
I-1
I7
tp1835
a(I116
I-32
I14
I96
I32
I95
I-225
I-295
I-276
I-739
I134
I-32
I9
I95
I29
I86
I-1642
I5
I21
tp1836
aa(lp1837
F1611228980.53296
aI-80
aI13
aI462
a(I3
I-1
I5
I-2
I-3
I0
I-5
I-1
I-2
I-2
I-2
I-6
I0
I-1
I1
I-6
I-8
I0
I1
I-6
I-5
I-2
tp1838
a(I116
I-32
I12
I94
I35
I96
I-226
I-294
I-277
I-740
I133
I-31
I8
I95
I28
I85
I-1644
I3
I22
tp1839
aa(lp1840
F1611228980.543153
aI-79
aI14
aI462
a(I0
I-1
I3
I0
I3
I3
I-9
I5
I5
I-3
I-9
I5
I2
I-3
I-3
I1
I0
I0
I-11
I3
I9
I-1
tp1841
a(I114
I-32
I13
I94
I35
I95
I-226
I-295
I-275
I-740
I133
I-30
I8
I93
I29
I86
I-1643
I4
I21
tp1842
aa(lp1843
F1611228980.553021
aI-80
aI13
aI462
a(I-6
I3
I2
I-3
I0
I0
I1
I0
I-4
I2
I4
I0
I-3
I2
I3
I-6
I-1
I0
I1
I1
I-4
I-1
tp1844
a(I116
I-31
I13
I95
I34
I96
I-225
I-296
I-276
I-740
I133
I-29
I7
I95
I29
I87
I-1644
I4
I23
tp1845
aa(lp1846
F1611228980.562729
aI-79
aI13
aI462
a(I1
I0
I-8
I-1
I5
I1
I0
I6
I6
I-4
I0
I0
I0
I0
I0
I0
I-2
I4
I-2
I2
I3
I-6
tp1847
a(I115
I-32
I13
I94
I34
I94
I-226
I-295
I-274
I-739
I132
I-29
I7
I93
I28
I86
I-1642
I4
I20
tp1848
aa(lp1849
F1611228980.57306
aI-80
aI12
aI462
a(I3
I3
I-3
I-1
I8
I2
I0
I-1
I-5
I1
I7
I-4
I-2
I6
I8
I-4
I-9
I4
I6
I0
I-7
I0
tp1850
a(I114
I-32
I13
I95
I36
I95
I-225
I-294
I-277
I-739
I133
I-29
I7
I94
I30
I86
I-1643
I3
I22
tp1851
aa(lp1852
F1611228980.582828
aI-79
aI14
aI462
a(I10
I6
I-6
I-6
I1
I5
I6
I3
I-4
I4
I2
I-4
I0
I6
I-6
I-7
I2
I1
I-3
I2
I-4
I1
tp1853
a(I115
I-31
I14
I94
I34
I96
I-225
I-294
I-276
I-739
I132
I-30
I6
I95
I29
I86
I-1643
I3
I23
tp1854
aa(lp1855
F1611228980.592715
aI-80
aI14
aI461
a(I0
I3
I0
I-1
I2
I0
I5
I-3
I0
I1
I6
I-12
I-5
I2
I0
I-1
I-5
I-4
I2
I0
I-7
I-8
tp1856
a(I116
I-32
I13
I96
I35
I96
I-226
I-295
I-276
I-739
I132
I-30
I8
I93
I29
I87
I-1642
I4
I23
tp1857
aa(lp1858
F1611228980.602949
aI-80
aI14
aI462
a(I-2
I4
I-3
I-6
I2
I3
I1
I1
I0
I2
I0
I-6
I2
I3
I-2
I-3
I-9
I-4
I0
I4
I1
I-1
tp1859
a(I116
I-31
I14
I96
I35
I95
I-225
I-295
I-276
I-738
I132
I-30
I8
I94
I28
I86
I-1641
I2
I21
tp1860
aa(lp1861
F1611228980.612912
aI-80
aI14
aI462
a(I2
I0
I-1
I-1
I5
I-3
I-4
I5
I-2
I0
I-5
I3
I3
I-4
I-3
I0
I8
I-1
I-3
I1
I0
I-7
tp1862
a(I114
I-32
I13
I94
I33
I96
I-225
I-294
I-276
I-739
I131
I-30
I6
I94
I28
I86
I-1643
I4
I21
tp1863
aa(lp1864
F1611228980.622729
aI-80
aI15
aI462
a(I0
I2
I-4
I-5
I4
I3
I0
I0
I4
I-2
I-3
I-6
I0
I-2
I-7
I1
I6
I-2
I0
I2
I2
I-2
tp1865
a(I115
I-32
I12
I95
I33
I96
I-225
I-294
I-276
I-739
I133
I-31
I6
I93
I28
I85
I-1642
I4
I21
tp1866
aa(lp1867
F1611228980.632878
aI-80
aI14
aI462
a(I-4
I-9
I2
I1
I-7
I-9
I4
I7
I-1
I-3
I2
I2
I3
I0
I-2
I6
I2
I-5
I2
I-1
I-2
I-1
tp1868
a(I116
I-32
I13
I95
I34
I95
I-225
I-294
I-275
I-739
I132
I-29
I8
I93
I29
I86
I-1643
I4
I20
tp1869
aa(lp1870
F1611228980.642876
aI-80
aI15
aI462
a(I-1
I-3
I3
I5
I-6
I0
I4
I0
I-4
I2
I1
I2
I3
I-4
I-2
I5
I4
I5
I7
I4
I1
I-4
tp1871
a(I115
I-32
I14
I95
I35
I96
I-225
I-295
I-276
I-739
I133
I-31
I6
I94
I29
I85
I-1642
I4
I22
tp1872
aa(lp1873
F1611228980.652773
aI-80
aI15
aI462
a(I-1
I5
I3
I-2
I-7
I10
I3
I-3
I3
I5
I-4
I-5
I-4
I0
I-1
I-4
I0
I1
I4
I1
I1
I7
tp1874
a(I115
I-32
I13
I95
I33
I96
I-225
I-295
I-276
I-739
I133
I-30
I9
I94
I28
I86
I-1642
I3
I23
tp1875
aa(lp1876
F1611228980.663519
aI-79
aI14
aI463
a(I-6
I-6
I3
I3
I-1
I0
I-5
I2
I0
I0
I-12
I-4
I4
I0
I-4
I2
I1
I-5
I-7
I-8
I10
I-1
tp1877
a(I115
I-32
I14
I95
I34
I96
I-226
I-295
I-276
I-739
I132
I-31
I7
I95
I29
I87
I-1641
I4
I21
tp1878
aa(lp1879
F1611228980.672851
aI-80
aI12
aI462
a(I-7
I-6
I0
I3
I0
I-8
I6
I9
I0
I-7
I0
I7
I4
I-6
I-2
I11
I6
I-7
I0
I1
I-1
I-2
tp1880
a(I115
I-31
I14
I95
I33
I95
I-226
I-295
I-276
I-739
I132
I-30
I8
I94
I29
I86
I-1642
I3
I22
tp1881
aa(lp1882
F1611228980.682767
aI-80
aI14
aI462
a(I-6
I-4
I0
I0
I-1
I4
I-3
I0
I0
I8
I-4
I-2
I4
I0
I0
I1
I-1
I-1
I1
I-6
I-1
I-3
tp1883
a(I116
I-32
I13
I95
I35
I95
I-226
I-295
I-276
I-740
I133
I-29
I7
I94
I28
I87
I-1643
I3
I22
tp1884
aa(lp1885
F1611228980.69299
aI-80
aI14
aI462
a(I-4
I-6
I8
I0
I-9
I0
I3
I0
I0
I-6
I1
I10
I-3
I-6
I0
I12
I0
I-6
I0
I7
I8
I-1
tp1886
a(I114
I-31
I14
I93
I35
I95
I-225
I-295
I-276
I-739
I132
I-30
I7
I94
I29
I87
I-1642
I2
I22
tp1887
aa(lp1888
F1611228980.702902
aI-80
aI13
aI462
a(I-9
I4
I13
I2
I-10
I2
I1
I2
I0
I-2
I1
I0
I-5
I0
I-2
I-7
I-6
I4
I0
I-3
I4
I5
tp1889
a(I114
I-32
I13
I95
I35
I95
I-225
I-295
I-277
I-739
I133
I-29
I8
I95
I29
I87
I-1642
I4
I22
tp1890
aa(lp1891
F1611228980.713026
aI-80
aI14
aI463
a(I0
I3
I2
I-5
I-2
I5
I4
I0
I1
I5
I0
I0
I-2
I-3
I6
I0
I-7
I7
I0
I-1
I5
I0
tp1892
a(I115
I-32
I13
I93
I32
I94
I-225
I-294
I-277
I-739
I134
I-30
I7
I95
I28
I86
I-1643
I3
I22
tp1893
aa(lp1894
F1611228980.722893
aI-80
aI14
aI462
a(I-1
I4
I3
I0
I2
I6
I-3
I3
I-4
I-1
I-2
I4
I-3
I-3
I4
I12
I1
I2
I-4
I6
I10
I-2
tp1895
a(I114
I-31
I12
I95
I34
I95
I-225
I-294
I-276
I-738
I132
I-30
I7
I94
I29
I86
I-1642
I4
I23
tp1896
aa(lp1897
F1611228980.732958
aI-80
aI15
aI462
a(I-3
I6
I2
I0
I-2
I2
I4
I8
I7
I5
I0
I9
I2
I0
I0
I1
I1
I1
I-1
I3
I6
I-3
tp1898
a(I114
I-31
I13
I95
I35
I94
I-226
I-295
I-276
I-738
I131
I-30
I7
I94
I28
I85
I-1643
I3
I21
tp1899
aa(lp1900
F1611228980.742979
aI-80
aI16
aI462
a(I-1
I-1
I5
I-1
I-5
I-2
I1
I6
I-4
I-9
I-2
I0
I-11
I0
I8
I-2
I-7
I4
I1
I2
I0
I-4
tp1901
a(I114
I-32
I13
I95
I33
I95
I-226
I-294
I-276
I-739
I131
I-29
I9
I95
I29
I87
I-1644
I3
I21
tp1902
aa(lp1903
F1611228980.752815
aI-80
aI14
aI462
a(I0
I-1
I-6
I-5
I4
I-1
I-6
I2
I0
I-7
I-3
I2
I3
I0
I4
I2
I-6
I5
I1
I-4
I-1
I-2
tp1904
a(I115
I-32
I13
I95
I34
I97
I-225
I-296
I-276
I-739
I132
I-32
I7
I93
I28
I87
I-1644
I4
I22
tp1905
aa(lp1906
F1611228980.763085
aI-80
aI12
aI462
a(I3
I5
I0
I0
I8
I2
I-6
I2
I3
I-2
I-4
I1
I0
I0
I5
I1
I-4
I-2
I0
I1
I3
I-7
tp1907
a(I115
I-31
I13
I95
I35
I96
I-226
I-294
I-276
I-739
I132
I-30
I6
I95
I29
I85
I-1643
I2
I21
tp1908
aa(lp1909
F1611228980.772727
aI-79
aI13
aI462
a(I0
I7
I4
I-5
I4
I10
I0
I-9
I1
I6
I0
I0
I-6
I0
I6
I-3
I-5
I4
I0
I-4
I0
I4
tp1910
a(I115
I-32
I13
I95
I34
I96
I-226
I-294
I-276
I-738
I132
I-29
I7
I93
I29
I87
I-1643
I3
I20
tp1911
aa(lp1912
F1611228980.782951
aI-80
aI14
aI462
a(I-3
I-1
I7
I5
I-3
I-3
I2
I-2
I-8
I1
I4
I8
I-1
I-6
I0
I4
I-6
I-10
I3
I7
I0
I-4
tp1913
a(I115
I-32
I12
I95
I34
I96
I-226
I-295
I-276
I-739
I133
I-30
I7
I93
I29
I85
I-1644
I5
I21
tp1914
aa(lp1915
F1611228980.792883
aI-79
aI14
aI462
a(I0
I-5
I-6
I-8
I-1
I1
I-2
I-5
I5
I4
I-6
I-4
I5
I-2
I-1
I1
I1
I4
I1
I1
I0
I0
tp1916
a(I115
I-32
I13
I95
I33
I96
I-225
I-295
I-275
I-739
I133
I-30
I7
I93
I30
I86
I-1644
I3
I21
tp1917
aa(lp1918
F1611228980.802734
aI-80
aI14
aI463
a(I3
I-13
I-4
I-3
I6
I4
I-5
I-3
I4
I9
I0
I-2
I8
I7
I0
I-3
I-2
I8
I-2
I-12
I-4
I0
tp1919
a(I114
I-32
I14
I95
I34
I96
I-225
I-295
I-276
I-739
I132
I-32
I7
I93
I29
I86
I-1642
I3
I21
tp1920
aa(lp1921
F1611228980.812978
aI-79
aI14
aI462
a(I2
I-2
I-7
I6
I6
I-9
I-2
I2
I0
I-1
I-7
I0
I0
I-5
I-5
I0
I7
I-4
I-3
I-1
I0
I-3
tp1922
a(I116
I-32
I14
I95
I34
I96
I-225
I-295
I-275
I-739
I132
I-30
I9
I94
I28
I87
I-1641
I5
I22
tp1923
aa(lp1924
F1611228980.822812
aI-79
aI13
aI463
a(I-4
I-7
I-1
I-3
I-1
I-5
I-7
I4
I0
I-4
I0
I-1
I-2
I3
I-1
I-2
I0
I1
I2
I3
I2
I-6
tp1925
a(I115
I-32
I12
I95
I33
I96
I-225
I-295
I-277
I-739
I132
I-30
I7
I93
I29
I87
I-1642
I4
I22
tp1926
aa(lp1927
F1611228980.832834
aI-80
aI12
aI462
a(I-2
I2
I-3
I-1
I2
I3
I-4
I0
I5
I6
I0
I-6
I-3
I4
I1
I-2
I-3
I8
I7
I1
I2
I2
tp1928
a(I115
I-31
I14
I96
I35
I95
I-226
I-295
I-277
I-738
I131
I-29
I8
I94
I29
I86
I-1643
I3
I23
tp1929
aa(lp1930
F1611228980.843087
aI-80
aI13
aI462
a(I-1
I6
I1
I-1
I0
I8
I3
I-3
I0
I10
I14
I0
I-5
I7
I12
I-1
I-5
I7
I7
I-2
I-7
I8
tp1931
a(I114
I-32
I14
I95
I33
I95
I-226
I-295
I-277
I-739
I131
I-29
I7
I94
I29
I85
I-1643
I3
I21
tp1932
aa(lp1933
F1611228980.85284
aI-79
aI12
aI462
a(I3
I-1
I0
I0
I-1
I-3
I-2
I0
I2
I-1
I4
I5
I1
I-1
I-3
I6
I0
I-1
I-3
I-3
I-9
I2
tp1934
a(I115
I-32
I13
I95
I34
I96
I-226
I-294
I-277
I-739
I132
I-29
I8
I93
I29
I86
I-1642
I2
I21
tp1935
aa(lp1936
F1611228980.862816
aI-80
aI14
aI462
a(I-3
I-4
I0
I2
I5
I-3
I6
I0
I-1
I0
I-4
I5
I2
I-2
I-3
I4
I0
I2
I1
I5
I3
I1
tp1937
a(I115
I-31
I13
I95
I35
I95
I-226
I-294
I-276
I-739
I133
I-29
I7
I93
I29
I87
I-1644
I3
I21
tp1938
aa(lp1939
F1611228980.872865
aI-80
aI11
aI462
a(I1
I-1
I8
I-3
I-8
I-3
I5
I0
I-11
I-1
I0
I3
I4
I7
I-3
I-2
I1
I4
I-4
I-7
I-5
I3
tp1940
a(I115
I-32
I13
I95
I35
I96
I-225
I-295
I-276
I-738
I132
I-32
I9
I94
I28
I86
I-1644
I4
I21
tp1941
aa(lp1942
F1611228980.882997
aI-80
aI12
aI462
a(I0
I-13
I-5
I4
I5
I0
I-7
I-1
I11
I8
I0
I-5
I0
I7
I-2
I-1
I0
I0
I2
I4
I3
I3
tp1943
a(I115
I-32
I13
I95
I34
I96
I-225
I-294
I-276
I-738
I131
I-31
I7
I93
I28
I86
I-1643
I3
I21
tp1944
aa(lp1945
F1611228980.892818
aI-80
aI12
aI462
a(I-1
I7
I6
I1
I-10
I3
I7
I-2
I-3
I1
I10
I3
I0
I-2
I0
I7
I3
I-7
I0
I1
I2
I0
tp1946
a(I114
I-31
I14
I95
I35
I95
I-226
I-294
I-276
I-739
I132
I-30
I7
I94
I29
I86
I-1643
I4
I22
tp1947
aa(lp1948
F1611228980.902952
aI-80
aI14
aI462
a(I-3
I-6
I5
I4
I-7
I-5
I5
I6
I4
I0
I-6
I3
I4
I-1
I-3
I7
I0
I-9
I8
I1
I5
I2
tp1949
a(I115
I-32
I14
I96
I34
I95
I-225
I-295
I-275
I-739
I131
I-30
I7
I93
I28
I85
I-1643
I4
I22
tp1950
aa(lp1951
F1611228980.912972
aI-80
aI13
aI462
a(I2
I1
I2
I2
I2
I4
I3
I0
I0
I0
I-7
I-1
I7
I2
I-2
I4
I9
I-2
I-9
I-1
I4
I1
tp1952
a(I117
I-31
I13
I95
I33
I96
I-225
I-294
I-277
I-739
I133
I-31
I7
I93
I29
I87
I-1642
I4
I22
tp1953
aa(lp1954
F1611228980.922933
aI-80
aI13
aI462
a(I-4
I-8
I4
I5
I-7
I-6
I1
I-2
I0
I-4
I0
I7
I6
I-12
I-1
I11
I3
I-6
I-1
I1
I-5
I-4
tp1955
a(I114
I-31
I14
I95
I34
I96
I-226
I-293
I-276
I-739
I132
I-30
I8
I95
I29
I87
I-1641
I3
I20
tp1956
aa(lp1957
F1611228980.932885
aI-80
aI13
aI462
a(I2
I-6
I-4
I2
I3
I5
I-2
I-6
I5
I9
I-4
I-1
I3
I3
I0
I-2
I-1
I1
I1
I3
I-3
I-1
tp1958
a(I115
I-31
I13
I95
I33
I97
I-225
I-295
I-276
I-739
I132
I-30
I7
I93
I28
I86
I-1642
I5
I22
tp1959
aa(lp1960
F1611228980.942825
aI-80
aI13
aI462
a(I4
I-3
I-5
I-5
I6
I3
I1
I0
I3
I13
I1
I-8
I2
I9
I-1
I-3
I-5
I7
I9
I-2
I-4
I7
tp1961
a(I115
I-32
I12
I94
I34
I96
I-226
I-295
I-276
I-739
I132
I-31
I6
I94
I29
I88
I-1643
I4
I21
tp1962
aa(lp1963
F1611228980.952724
aI-79
aI13
aI462
a(I12
I-4
I-3
I10
I2
I-5
I0
I1
I4
I3
I-4
I0
I3
I-1
I-1
I0
I0
I-6
I5
I4
I-2
I-1
tp1964
a(I116
I-31
I12
I94
I36
I94
I-225
I-295
I-276
I-738
I133
I-31
I7
I95
I29
I86
I-1642
I5
I22
tp1965
aa(lp1966
F1611228980.962759
aI-80
aI13
aI463
a(I2
I-7
I-3
I-5
I-3
I-8
I6
I1
I5
I0
I0
I4
I0
I-6
I0
I10
I0
I-6
I3
I4
I1
I-7
tp1967
a(I115
I-32
I12
I93
I33
I96
I-225
I-295
I-276
I-739
I133
I-30
I8
I93
I30
I87
I-1643
I4
I21
tp1968
aa(lp1969
F1611228980.972893
aI-80
aI13
aI462
a(I-1
I-3
I2
I-3
I-4
I-2
I5
I-6
I-5
I0
I2
I-3
I2
I2
I0
I-2
I0
I-1
I-2
I-2
I-6
I1
tp1970
a(I115
I-31
I13
I95
I34
I97
I-226
I-295
I-276
I-740
I132
I-31
I8
I94
I28
I87
I-1643
I3
I21
tp1971
aa(lp1972
F1611228980.982938
aI-79
aI13
aI462
a(I1
I-4
I4
I0
I0
I3
I5
I-1
I0
I6
I5
I-6
I-3
I2
I2
I0
I-7
I-1
I9
I1
I-6
I5
tp1973
a(I114
I-32
I13
I95
I34
I96
I-225
I-294
I-276
I-739
I133
I-30
I6
I94
I28
I86
I-1643
I3
I21
tp1974
aa(lp1975
F1611228980.992874
aI-80
aI11
aI463
a(I-1
I0
I3
I-6
I-8
I-1
I6
I3
I-2
I-2
I-2
I-2
I-3
I-1
I-6
I-5
I-3
I-2
I3
I2
I5
I2
tp1976
a(I114
I-31
I13
I95
I35
I94
I-225
I-295
I-277
I-739
I132
I-31
I7
I94
I28
I86
I-1643
I4
I22
tp1977
aa(lp1978
F1611228981.003086
aI-80
aI14
aI462
a(I1
I-8
I2
I0
I-6
I-5
I0
I-2
I4
I-4
I-3
I0
I3
I0
I-4
I3
I-5
I-3
I-3
I-3
I-6
I-7
tp1979
a(I115
I-32
I12
I95
I33
I96
I-225
I-296
I-275
I-738
I131
I-31
I8
I93
I29
I86
I-1642
I4
I22
tp1980
aa(lp1981
F1611228981.012878
aI-80
aI13
aI462
a(I-3
I-3
I-6
I-5
I1
I-1
I-2
I-6
I0
I5
I2
I-11
I4
I13
I0
I-6
I5
I2
I-3
I-2
I-3
I1
tp1982
a(I115
I-32
I13
I94
I34
I95
I-225
I-295
I-276
I-739
I133
I-30
I6
I93
I29
I87
I-1643
I3
I21
tp1983
aa(lp1984
F1611228981.023128
aI-79
aI13
aI462
a(I2
I0
I0
I3
I-3
I-4
I13
I0
I-3
I2
I4
I-1
I-1
I-8
I3
I11
I1
I-11
I-2
I11
I2
I-5
tp1985
a(I115
I-32
I13
I94
I33
I96
I-225
I-295
I-276
I-739
I132
I-30
I8
I94
I28
I86
I-1644
I4
I22
tp1986
aa(lp1987
F1611228981.033125
aI-80
aI14
aI462
a(I-8
I2
I0
I3
I-12
I-13
I7
I7
I-2
I-6
I-4
I5
I4
I-7
I-12
I2
I4
I1
I-1
I2
I4
I1
tp1988
a(I115
I-32
I12
I94
I34
I95
I-226
I-294
I-276
I-739
I133
I-30
I8
I93
I28
I86
I-1643
I3
I22
tp1989
aa(lp1990
F1611228981.042938
aI-80
aI13
aI463
a(I0
I-5
I1
I0
I-1
I0
I4
I1
I6
I5
I4
I-4
I3
I6
I2
I0
I0
I-1
I2
I8
I0
I-4
tp1991
a(I116
I-32
I15
I94
I34
I96
I-225
I-295
I-276
I-739
I133
I-30
I7
I95
I30
I87
I-1642
I3
I21
tp1992
aa(lp1993
F1611228981.052938
aI-80
aI14
aI461
a(I0
I3
I5
I-3
I-2
I-5
I3
I-2
I0
I3
I2
I-6
I-1
I0
I-2
I-7
I-5
I0
I0
I2
I-8
I-6
tp1994
a(I116
I-33
I14
I93
I33
I95
I-225
I-294
I-276
I-738
I133
I-29
I6
I93
I28
I86
I-1642
I5
I21
tp1995
aa(lp1996
F1611228981.063127
aI-80
aI13
aI463
a(I5
I2
I-2
I-1
I4
I4
I3
I-5
I3
I2
I4
I-2
I0
I11
I2
I-7
I-6
I1
I-2
I1
I-4
I4
tp1997
a(I116
I-31
I12
I95
I33
I96
I-225
I-294
I-276
I-739
I133
I-31
I8
I93
I29
I87
I-1643
I3
I21
tp1998
aa(lp1999
F1611228981.07296
aI-79
aI15
aI461
a(I8
I-2
I0
I3
I7
I-1
I3
I7
I12
I1
I-1
I0
I5
I8
I8
I2
I9
I17
I6
I1
I6
I4
tp2000
a(I115
I-32
I13
I94
I34
I96
I-225
I-295
I-276
I-739
I132
I-30
I7
I95
I29
I86
I-1641
I3
I20
tp2001
aa(lp2002
F1611228981.082964
aI-80
aI15
aI462
a(I7
I7
I-5
I2
I11
I7
I-5
I5
I5
I6
I1
I3
I-2
I9
I1
I-4
I2
I0
I-2
I2
I4
I-6
tp2003
a(I115
I-33
I13
I94
I34
I97
I-225
I-296
I-276
I-739
I132
I-30
I8
I94
I30
I87
I-1643
I2
I22
tp2004
aa(lp2005
F1611228981.0931
aI-80
aI17
aI462
a(I-3
I2
I2
I-3
I3
I-2
I-2
I4
I-2
I1
I7
I12
I0
I6
I0
I-3
I2
I-2
I2
I7
I-1
I1
tp2006
a(I115
I-31
I12
I95
I33
I96
I-225
I-295
I-276
I-739
I134
I-31
I7
I94
I29
I87
I-1642
I3
I22
tp2007
aa(lp2008
F1611228981.102878
aI-79
aI17
aI462
a(I6
I4
I-2
I0
I4
I2
I0
I-2
I-1
I0
I0
I-1
I-5
I-2
I6
I1
I0
I0
I1
I1
I0
I-8
tp2009
a(I114
I-32
I14
I95
I33
I96
I-225
I-294
I-276
I-738
I132
I-31
I8
I93
I29
I87
I-1642
I5
I22
tp2010
aa(lp2011
F1611228981.112929
aI-80
aI17
aI462
a(I0
I2
I-3
I-4
I-5
I-5
I0
I1
I-3
I-2
I8
I-5
I-4
I-2
I4
I-6
I-2
I1
I6
I2
I-7
I-2
tp2012
a(I116
I-31
I14
I95
I34
I95
I-226
I-294
I-276
I-740
I133
I-30
I7
I92
I30
I86
I-1642
I3
I23
tp2013
aa(lp2014
F1611228981.123102
aI-80
aI17
aI461
a(I9
I-4
I-9
I3
I13
I-3
I0
I1
I4
I10
I2
I-2
I3
I4
I3
I-7
I2
I1
I-3
I-2
I-2
I-4
tp2015
a(I115
I-32
I14
I93
I34
I95
I-225
I-294
I-276
I-740
I133
I-31
I7
I94
I30
I86
I-1644
I3
I22
tp2016
aa(lp2017
F1611228981.132869
aI-80
aI19
aI462
a(I1
I-3
I0
I-2
I0
I-5
I5
I1
I-6
I-3
I9
I1
I-5
I0
I-3
I7
I0
I-3
I0
I2
I-5
I-7
tp2018
a(I115
I-32
I13
I95
I34
I95
I-225
I-296
I-275
I-739
I133
I-30
I7
I95
I28
I86
I-1644
I2
I22
tp2019
aa(lp2020
F1611228981.1429
aI-80
aI18
aI462
a(I-7
I-6
I-8
I-5
I4
I-5
I-2
I-3
I-1
I-3
I-3
I-5
I0
I5
I-6
I-7
I-4
I3
I-3
I2
I-3
I5
tp2021
a(I116
I-32
I14
I95
I34
I96
I-226
I-295
I-275
I-738
I134
I-31
I6
I94
I30
I86
I-1642
I4
I22
tp2022
aa(lp2023
F1611228981.153083
aI-80
aI17
aI463
a(I2
I0
I0
I-5
I3
I0
I0
I4
I1
I-3
I3
I0
I4
I10
I-7
I-4
I4
I0
I-12
I0
I5
I-1
tp2024
a(I114
I-31
I12
I95
I34
I96
I-225
I-295
I-276
I-739
I133
I-30
I8
I95
I27
I87
I-1644
I3
I21
tp2025
aa(lp2026
F1611228981.162833
aI-80
aI16
aI462
a(I-8
I-1
I3
I2
I-3
I-3
I11
I8
I-9
I-4
I8
I0
I-4
I-6
I0
I-1
I4
I0
I-6
I1
I4
I3
tp2027
a(I115
I-31
I12
I95
I35
I96
I-225
I-296
I-276
I-739
I132
I-30
I7
I94
I29
I87
I-1644
I3
I21
tp2028
aa(lp2029
F1611228981.17285
aI-80
aI15
aI462
a(I-12
I-6
I0
I2
I-8
I-10
I-1
I11
I0
I-16
I0
I2
I-2
I-5
I2
I0
I2
I1
I-1
I9
I2
I-5
tp2030
a(I115
I-32
I14
I94
I35
I96
I-225
I-295
I-276
I-740
I132
I-30
I7
I93
I30
I86
I-1643
I2
I22
tp2031
aa(lp2032
F1611228981.183148
aI-80
aI15
aI462
a(I-3
I9
I-3
I-3
I2
I3
I0
I4
I2
I7
I0
I1
I-4
I-2
I0
I-1
I0
I-2
I-5
I3
I3
I0
tp2033
a(I114
I-32
I12
I95
I33
I95
I-226
I-295
I-276
I-739
I132
I-31
I8
I94
I29
I86
I-1642
I4
I21
tp2034
aa(lp2035
F1611228981.192815
aI-80
aI17
aI463
a(I1
I2
I4
I-5
I0
I-3
I-4
I0
I5
I-1
I1
I-3
I1
I7
I-6
I-6
I3
I12
I0
I1
I1
I7
tp2036
a(I115
I-31
I12
I95
I34
I95
I-226
I-296
I-275
I-740
I132
I-29
I8
I93
I29
I86
I-1642
I4
I23
tp2037
aa(lp2038
F1611228981.202768
aI-79
aI17
aI462
a(I-4
I2
I-2
I3
I-1
I-1
I-4
I0
I-2
I-2
I0
I-4
I-1
I3
I1
I-3
I-3
I4
I2
I1
I3
I2
tp2039
a(I116
I-32
I14
I94
I34
I95
I-225
I-295
I-277
I-740
I132
I-30
I7
I93
I29
I85
I-1642
I3
I21
tp2040
aa(lp2041
F1611228981.212827
aI-80
aI16
aI462
a(I2
I7
I3
I2
I5
I-4
I0
I0
I-6
I-4
I0
I5
I-7
I-6
I4
I9
I-3
I-5
I2
I14
I-1
I-8
tp2042
a(I115
I-32
I15
I95
I33
I95
I-225
I-295
I-277
I-738
I132
I-31
I8
I94
I29
I86
I-1643
I4
I21
tp2043
aa(lp2044
F1611228981.222843
aI-80
aI19
aI461
a(I-5
I9
I2
I-4
I0
I5
I3
I1
I0
I-4
I0
I4
I-2
I0
I6
I2
I-10
I-3
I-3
I1
I4
I-1
tp2045
a(I115
I-32
I12
I95
I33
I96
I-226
I-295
I-276
I-739
I132
I-31
I8
I94
I30
I85
I-1642
I3
I22
tp2046
aa(lp2047
F1611228981.232743
aI-80
aI16
aI462
a(I3
I7
I-6
I-2
I6
I4
I-3
I8
I6
I6
I4
I-2
I0
I13
I13
I0
I5
I10
I4
I1
I-1
I7
tp2048
a(I114
I-32
I13
I94
I33
I97
I-225
I-296
I-276
I-740
I132
I-31
I7
I93
I29
I86
I-1643
I4
I22
tp2049
aa(lp2050
F1611228981.242846
aI-80
aI18
aI462
a(I4
I0
I-2
I2
I4
I-2
I5
I9
I0
I5
I9
I3
I-2
I4
I2
I5
I0
I-1
I-5
I5
I-1
I-9
tp2051
a(I114
I-31
I12
I95
I35
I95
I-225
I-295
I-276
I-739
I133
I-31
I6
I94
I28
I85
I-1642
I4
I21
tp2052
aa(lp2053
F1611228981.252645
aI-80
aI18
aI462
a(I2
I10
I8
I2
I-6
I0
I10
I-2
I-1
I0
I-1
I-10
I0
I-6
I-6
I-4
I-1
I-6
I-2
I3
I0
I-4
tp2054
a(I114
I-31
I12
I94
I33
I95
I-226
I-295
I-276
I-739
I133
I-30
I9
I93
I28
I87
I-1644
I4
I21
tp2055
aa(lp2056
F1611228981.262575
aI-79
aI16
aI462
a(I-2
I-6
I1
I-6
I-7
I3
I-3
I-4
I-1
I0
I-3
I-2
I-2
I-6
I0
I1
I-6
I0
I0
I3
I-1
I-7
tp2057
a(I115
I-33
I12
I95
I34
I97
I-225
I-294
I-277
I-739
I132
I-31
I7
I93
I28
I86
I-1642
I3
I22
tp2058
aa(lp2059
F1611228981.272693
aI-80
aI17
aI462
a(I-5
I-9
I-5
I-2
I-2
I3
I-4
I-2
I1
I5
I-1
I6
I-1
I-3
I1
I0
I-11
I-7
I0
I1
I9
I4
tp2060
a(I115
I-32
I12
I95
I35
I95
I-226
I-294
I-277
I-739
I132
I-31
I8
I94
I28
I85
I-1642
I4
I21
tp2061
aa(lp2062
F1611228981.282714
aI-80
aI16
aI462
a(I-7
I-1
I2
I0
I-6
I-1
I4
I0
I0
I0
I0
I4
I4
I0
I1
I1
I-3
I5
I0
I-6
I1
I5
tp2063
a(I115
I-31
I13
I95
I34
I96
I-226
I-296
I-276
I-738
I133
I-31
I8
I92
I28
I86
I-1643
I3
I22
tp2064
aa(lp2065
F1611228981.292495
aI-80
aI15
aI462
a(I2
I-1
I0
I-4
I-4
I5
I5
I2
I1
I9
I3
I-5
I-1
I2
I7
I-3
I-10
I-1
I2
I-2
I-6
I0
tp2066
a(I115
I-32
I14
I95
I35
I96
I-225
I-295
I-276
I-740
I133
I-30
I7
I93
I29
I86
I-1642
I3
I21
tp2067
aa(lp2068
F1611228981.303127
aI-80
aI14
aI462
a(I-5
I0
I2
I-1
I-2
I-6
I-7
I-3
I4
I-4
I-6
I-1
I10
I3
I-8
I-5
I3
I3
I-5
I-4
I4
I5
tp2069
a(I115
I-32
I13
I95
I35
I95
I-225
I-295
I-276
I-739
I131
I-29
I8
I94
I29
I85
I-1642
I3
I20
tp2070
aa(lp2071
F1611228981.312695
aI-80
aI12
aI462
a(I-6
I2
I0
I-8
I-3
I5
I-6
I-2
I1
I7
I3
I4
I-6
I5
I4
I3
I-9
I2
I5
I0
I1
I-5
tp2072
a(I114
I-31
I14
I94
I34
I96
I-226
I-295
I-277
I-739
I132
I-31
I8
I95
I29
I85
I-1643
I2
I22
tp2073
aa(lp2074
F1611228981.322545
aI-80
aI14
aI463
a(I5
I0
I4
I5
I3
I8
I2
I-2
I-6
I-6
I0
I1
I-4
I0
I0
I0
I-8
I-4
I4
I0
I0
I-3
tp2075
a(I115
I-32
I14
I94
I34
I96
I-225
I-295
I-276
I-738
I133
I-31
I8
I93
I29
I85
I-1643
I4
I21
tp2076
aa(lp2077
F1611228981.332725
aI-80
aI13
aI462
a(I-1
I4
I-3
I-8
I-1
I5
I3
I-5
I1
I6
I-1
I-3
I-1
I2
I2
I-2
I-7
I-1
I0
I0
I-1
I0
tp2078
a(I116
I-31
I13
I95
I35
I95
I-226
I-294
I-276
I-739
I133
I-30
I7
I93
I29
I85
I-1642
I3
I21
tp2079
aa(lp2080
F1611228981.342708
aI-80
aI14
aI462
a(I3
I6
I0
I-2
I-1
I6
I0
I-1
I8
I7
I5
I-2
I6
I4
I7
I-2
I1
I-7
I-1
I-1
I-4
I-2
tp2081
a(I115
I-33
I12
I95
I34
I95
I-226
I-295
I-276
I-738
I131
I-30
I6
I94
I28
I87
I-1641
I4
I22
tp2082
aa(lp2083
F1611228981.352536
aI-80
aI14
aI462
a(I-1
I-1
I6
I-1
I-2
I1
I5
I3
I-1
I-4
I-1
I4
I-3
I-4
I0
I10
I3
I-11
I2
I11
I0
I0
tp2084
a(I116
I-32
I14
I94
I33
I96
I-225
I-295
I-276
I-739
I132
I-30
I6
I93
I28
I86
I-1642
I5
I22
tp2085
aa(lp2086
F1611228981.362873
aI-80
aI15
aI462
a(I1
I8
I3
I0
I-6
I1
I2
I-4
I1
I7
I0
I-11
I2
I5
I4
I-3
I-8
I-2
I3
I0
I-10
I-6
tp2087
a(I116
I-32
I13
I95
I35
I95
I-225
I-295
I-276
I-739
I132
I-31
I7
I93
I29
I86
I-1642
I4
I23
tp2088
aa(lp2089
F1611228981.372706
aI-80
aI16
aI462
a(I6
I2
I0
I-5
I3
I6
I0
I-4
I5
I7
I6
I-9
I-2
I5
I0
I-7
I3
I3
I1
I0
I-7
I-2
tp2090
a(I116
I-32
I13
I93
I35
I94
I-225
I-296
I-276
I-738
I132
I-30
I8
I95
I28
I88
I-1641
I4
I21
tp2091
aa(lp2092
F1611228981.382599
aI-80
aI14
aI461
a(I3
I-5
I-7
I4
I4
I-3
I3
I-1
I7
I4
I0
I-4
I4
I4
I0
I-4
I-1
I0
I0
I2
I4
I-1
tp2093
a(I115
I-33
I13
I94
I35
I95
I-225
I-295
I-276
I-739
I132
I-29
I7
I93
I28
I86
I-1644
I3
I20
tp2094
aa(lp2095
F1611228981.39373
aI-80
aI12
aI462
a(I5
I-1
I-1
I3
I0
I0
I6
I0
I1
I6
I2
I-2
I0
I3
I-1
I-2
I1
I5
I0
I0
I1
I6
tp2096
a(I114
I-32
I11
I96
I35
I96
I-226
I-295
I-277
I-739
I132
I-30
I7
I94
I29
I86
I-1642
I4
I21
tp2097
aa(lp2098
F1611228981.402798
aI-80
aI13
aI462
a(I3
I2
I3
I-1
I4
I-2
I3
I9
I12
I2
I0
I0
I9
I0
I-3
I-2
I-1
I5
I-2
I3
I3
I1
tp2099
a(I115
I-31
I12
I95
I35
I95
I-225
I-295
I-277
I-739
I132
I-30
I9
I93
I28
I86
I-1643
I4
I21
tp2100
aa(lp2101
F1611228981.412776
aI-80
aI11
aI462
a(I-3
I-3
I-4
I-1
I-1
I1
I-8
I-3
I2
I0
I-8
I-1
I0
I8
I1
I-7
I-3
I5
I4
I-2
I-5
I-1
tp2102
a(I115
I-33
I14
I95
I34
I94
I-225
I-295
I-276
I-739
I132
I-30
I6
I94
I29
I87
I-1641
I4
I21
tp2103
aa(lp2104
F1611228981.42413
aI-80
aI10
aI461
a(I4
I-5
I-8
I-5
I4
I1
I-6
I-6
I-4
I1
I0
I-4
I-5
I4
I1
I-3
I-2
I-2
I4
I-1
I-4
I-5
tp2105
a(I114
I-31
I11
I93
I34
I96
I-225
I-295
I-277
I-739
I132
I-30
I8
I93
I29
I87
I-1642
I3
I21
tp2106
aa(lp2107
F1611228981.432644
aI-79
aI11
aI462
a(I4
I0
I2
I4
I8
I-5
I-1
I9
I2
I-2
I-5
I7
I5
I0
I-6
I4
I6
I8
I-1
I-4
I3
I1
tp2108
a(I114
I-32
I13
I95
I33
I96
I-226
I-295
I-276
I-739
I131
I-31
I8
I93
I31
I86
I-1642
I4
I21
tp2109
aa(lp2110
F1611228981.442542
aI-80
aI12
aI462
a(I0
I-5
I-1
I6
I6
I-1
I2
I1
I2
I3
I4
I0
I-1
I12
I3
I1
I-3
I5
I0
I1
I2
I1
tp2111
a(I115
I-32
I11
I95
I35
I95
I-225
I-294
I-277
I-739
I133
I-30
I7
I94
I29
I85
I-1642
I5
I21
tp2112
aa(lp2113
F1611228981.453104
aI-80
aI13
aI462
a(I-1
I-3
I-4
I1
I5
I-2
I-4
I4
I5
I2
I-4
I0
I-2
I1
I2
I0
I5
I4
I-2
I-3
I0
I-1
tp2114
a(I116
I-32
I15
I94
I33
I96
I-225
I-296
I-275
I-739
I132
I-31
I6
I95
I30
I86
I-1642
I3
I20
tp2115
aa(lp2116
F1611228981.462648
aI-80
aI11
aI462
a(I-3
I0
I-5
I-7
I-1
I0
I-3
I1
I0
I-5
I1
I7
I-1
I0
I-1
I0
I-2
I2
I-1
I-4
I7
I0
tp2117
a(I115
I-32
I14
I95
I33
I96
I-225
I-294
I-276
I-739
I133
I-30
I7
I96
I28
I86
I-1643
I4
I22
tp2118
aa(lp2119
F1611228981.472539
aI-80
aI11
aI462
a(I-8
I-3
I-5
I1
I5
I-7
I-2
I9
I-1
I-7
I-3
I-1
I-4
I3
I-2
I-4
I4
I1
I-2
I-3
I1
I0
tp2120
a(I114
I-32
I13
I95
I33
I96
I-226
I-294
I-277
I-739
I132
I-30
I7
I94
I30
I85
I-1644
I3
I21
tp2121
aa(lp2122
F1611228981.482678
aI-80
aI9
aI462
a(I0
I0
I-6
I-1
I1
I-1
I6
I1
I-5
I3
I5
I-4
I-7
I3
I5
I-7
I-7
I0
I-4
I-1
I-9
I-6
tp2123
a(I114
I-32
I12
I96
I34
I95
I-225
I-295
I-275
I-739
I133
I-31
I8
I93
I30
I86
I-1642
I5
I21
tp2124
aa(lp2125
F1611228981.492861
aI-80
aI8
aI461
a(I3
I6
I-6
I-3
I2
I3
I2
I-4
I-1
I3
I3
I7
I2
I3
I7
I0
I-1
I-1
I-5
I2
I6
I-1
tp2126
a(I115
I-32
I12
I95
I34
I97
I-225
I-295
I-276
I-739
I132
I-30
I8
I95
I28
I86
I-1642
I3
I23
tp2127
aa(lp2128
F1611228981.502554
aI-80
aI7
aI462
a(I-4
I5
I4
I-8
I-6
I0
I4
I5
I-4
I0
I4
I8
I-1
I0
I0
I0
I1
I5
I-5
I-1
I3
I5
tp2129
a(I114
I-33
I13
I95
I35
I96
I-225
I-295
I-277
I-739
I133
I-29
I8
I93
I28
I85
I-1644
I3
I22
tp2130
aa(lp2131
F1611228981.512696
aI-80
aI6
aI462
a(I-7
I-3
I0
I4
I1
I-1
I2
I5
I1
I-2
I-3
I0
I2
I3
I0
I0
I-2
I1
I-2
I-5
I6
I5
tp2132
a(I116
I-31
I12
I95
I34
I96
I-225
I-294
I-276
I-739
I132
I-30
I7
I93
I27
I86
I-1644
I3
I21
tp2133
aa(lp2134
F1611228981.522607
aI-80
aI8
aI462
a(I-2
I3
I3
I1
I-4
I1
I5
I3
I-1
I0
I4
I7
I-2
I1
I10
I3
I0
I-3
I0
I3
I-1
I0
tp2135
a(I115
I-31
I14
I93
I33
I96
I-225
I-295
I-275
I-739
I132
I-30
I7
I94
I29
I87
I-1643
I2
I21
tp2136
aa(lp2137
F1611228981.53266
aI-79
aI7
aI462
a(I-3
I-2
I2
I-4
I-9
I4
I-2
I-4
I3
I3
I3
I-3
I-3
I6
I5
I1
I-3
I11
I0
I-1
I-1
I0
tp2138
a(I114
I-31
I14
I95
I34
I96
I-225
I-294
I-277
I-740
I133
I-30
I7
I93
I29
I86
I-1641
I3
I22
tp2139
aa(lp2140
F1611228981.5427
aI-79
aI10
aI462
a(I0
I-1
I4
I6
I-1
I2
I8
I5
I3
I7
I4
I14
I4
I-4
I2
I8
I-1
I-2
I-1
I6
I1
I-6
tp2141
a(I115
I-31
I13
I94
I34
I95
I-226
I-295
I-275
I-739
I132
I-29
I6
I93
I29
I86
I-1644
I3
I22
tp2142
aa(lp2143
F1611228981.552708
aI-80
aI10
aI461
a(I-5
I5
I0
I-4
I4
I11
I3
I6
I5
I-5
I0
I1
I0
I-1
I-2
I0
I2
I-5
I-13
I1
I11
I-4
tp2144
a(I114
I-31
I15
I95
I35
I97
I-225
I-295
I-276
I-739
I133
I-30
I7
I94
I28
I86
I-1644
I3
I21
tp2145
aa(lp2146
F1611228981.562639
aI-80
aI10
aI462
a(I-9
I4
I3
I-7
I-6
I-1
I-1
I0
I-2
I0
I-4
I3
I-5
I4
I4
I-1
I-3
I2
I4
I1
I0
I-4
tp2147
a(I114
I-32
I14
I94
I35
I96
I-225
I-296
I-276
I-740
I132
I-30
I7
I93
I31
I87
I-1642
I4
I22
tp2148
aa(lp2149
F1611228981.572747
aI-80
aI10
aI463
a(I0
I2
I-4
I-5
I1
I3
I-7
I0
I2
I-1
I-4
I5
I-2
I0
I6
I-2
I-5
I-5
I-5
I-2
I0
I-6
tp2150
a(I116
I-32
I15
I95
I35
I96
I-225
I-295
I-276
I-739
I132
I-30
I7
I94
I28
I86
I-1643
I3
I20
tp2151
aa(lp2152
F1611228981.582802
aI-80
aI9
aI461
a(I-1
I3
I-6
I-2
I-3
I-4
I-1
I5
I-3
I-4
I3
I1
I-2
I-2
I0
I9
I2
I-9
I-6
I5
I7
I-5
tp2153
a(I115
I-32
I15
I95
I34
I95
I-225
I-295
I-277
I-739
I132
I-30
I8
I94
I30
I86
I-1642
I4
I22
tp2154
aa(lp2155
F1611228981.592704
aI-80
aI10
aI462
a(I-13
I-1
I11
I1
I-7
I-4
I7
I7
I-2
I0
I1
I3
I-4
I2
I0
I0
I-7
I6
I0
I7
I3
I3
tp2156
a(I116
I-32
I15
I93
I33
I95
I-225
I-295
I-277
I-738
I133
I-30
I7
I95
I29
I86
I-1642
I3
I22
tp2157
aa(lp2158
F1611228981.602836
aI-80
aI10
aI463
a(I2
I7
I1
I-1
I3
I4
I6
I1
I-4
I0
I8
I4
I-5
I0
I4
I9
I0
I1
I-1
I-1
I4
I-2
tp2159
a(I115
I-32
I13
I94
I35
I95
I-225
I-295
I-276
I-739
I132
I-30
I7
I93
I28
I86
I-1641
I4
I21
tp2160
aa(lp2161
F1611228981.61301
aI-80
aI11
aI462
a(I-5
I-3
I0
I0
I1
I-2
I2
I6
I-2
I-1
I-3
I-3
I-3
I-2
I4
I-2
I-8
I5
I1
I-3
I-4
I-2
tp2162
a(I114
I-31
I15
I95
I35
I96
I-225
I-295
I-277
I-740
I131
I-30
I8
I93
I28
I87
I-1640
I4
I21
tp2163
aa(lp2164
F1611228981.622756
aI-80
aI12
aI462
a(I2
I2
I-2
I-3
I-2
I0
I-4
I3
I0
I-7
I-4
I-2
I-2
I-1
I-4
I1
I5
I0
I-6
I0
I5
I4
tp2165
a(I116
I-32
I14
I95
I33
I96
I-225
I-295
I-276
I-739
I132
I-31
I7
I94
I28
I85
I-1643
I4
I21
tp2166
aa(lp2167
F1611228981.632859
aI-80
aI11
aI462
a(I2
I0
I5
I0
I-3
I0
I1
I0
I-3
I0
I-6
I0
I0
I2
I8
I0
I-6
I0
I2
I-5
I-3
I4
tp2168
a(I115
I-31
I14
I93
I34
I95
I-226
I-294
I-276
I-739
I132
I-30
I7
I94
I29
I86
I-1642
I3
I21
tp2169
aa(lp2170
F1611228981.642795
aI-80
aI12
aI462
a(I1
I3
I-1
I-3
I-3
I-5
I-5
I2
I2
I-1
I-3
I2
I-2
I-10
I-4
I-1
I-5
I-5
I-7
I-8
I-8
I-10
tp2171
a(I115
I-31
I14
I95
I35
I96
I-226
I-295
I-276
I-739
I132
I-31
I8
I94
I30
I86
I-1642
I4
I21
tp2172
aa(lp2173
F1611228981.653069
aI-80
aI11
aI462
a(I-10
I-2
I-3
I-5
I-7
I4
I2
I-6
I-12
I-1
I5
I-7
I-6
I-2
I2
I0
I-6
I-8
I6
I1
I-4
I0
tp2174
a(I115
I-31
I15
I94
I35
I94
I-225
I-294
I-276
I-740
I133
I-30
I9
I93
I29
I87
I-1644
I3
I21
tp2175
aa(lp2176
F1611228981.662876
aI-80
aI11
aI462
a(I4
I2
I-1
I-3
I0
I-1
I0
I0
I-3
I1
I-2
I-7
I-7
I1
I2
I0
I0
I-2
I-1
I3
I-1
I-7
tp2177
a(I115
I-32
I12
I94
I34
I95
I-225
I-295
I-276
I-739
I134
I-30
I8
I93
I28
I86
I-1644
I3
I22
tp2178
aa(lp2179
F1611228981.673035
aI-80
aI12
aI462
a(I-3
I4
I-3
I0
I-3
I-5
I-5
I0
I-7
I-5
I2
I3
I1
I-1
I1
I0
I-3
I-2
I-2
I1
I-1
I-8
tp2180
a(I115
I-32
I14
I94
I34
I95
I-225
I-295
I-276
I-739
I133
I-30
I8
I93
I28
I86
I-1641
I4
I23
tp2181
aa(lp2182
F1611228981.68288
aI-80
aI12
aI463
a(I1
I0
I-4
I-7
I-2
I3
I-1
I0
I-2
I1
I2
I2
I-7
I-1
I-2
I-4
I-5
I-1
I-4
I1
I4
I0
tp2183
a(I115
I-33
I13
I94
I34
I94
I-225
I-295
I-276
I-739
I134
I-30
I7
I95
I29
I86
I-1643
I2
I21
tp2184
aa(lp2185
F1611228981.692918
aI-80
aI12
aI462
a(I-3
I2
I-4
I-2
I3
I-1
I-1
I0
I0
I2
I2
I-2
I0
I8
I5
I-1
I3
I0
I5
I-1
I-3
I4
tp2186
a(I116
I-32
I13
I93
I34
I96
I-225
I-294
I-276
I-739
I132
I-29
I6
I93
I28
I85
I-1640
I3
I22
tp2187
aa(lp2188
F1611228981.702967
aI-80
aI12
aI462
a(I5
I3
I-6
I0
I3
I-4
I0
I0
I-2
I2
I4
I1
I-2
I0
I2
I-3
I-2
I2
I-1
I-1
I1
I-4
tp2189
a(I114
I-31
I12
I94
I35
I96
I-225
I-295
I-276
I-740
I132
I-32
I8
I93
I29
I86
I-1643
I4
I22
tp2190
aa(lp2191
F1611228981.712772
aI-79
aI10
aI461
a(I-2
I1
I0
I6
I3
I-8
I3
I11
I2
I-2
I2
I1
I-1
I4
I-5
I-7
I3
I0
I0
I4
I-1
I-2
tp2192
a(I114
I-32
I14
I95
I34
I96
I-226
I-295
I-276
I-738
I132
I-31
I6
I94
I28
I87
I-1640
I4
I21
tp2193
aa(lp2194
F1611228981.722648
aI-80
aI10
aI462
a(I-3
I5
I-3
I0
I6
I3
I7
I-3
I-2
I0
I0
I-1
I-6
I5
I-3
I0
I6
I9
I1
I0
I2
I7
tp2195
a(I115
I-33
I12
I94
I35
I95
I-225
I-295
I-276
I-739
I132
I-30
I8
I94
I28
I86
I-1642
I2
I21
tp2196
aa.